(dp0
cnumpy.core.multiarray
scalar
p1
(cnumpy
dtype
p2
(S'S96'
p3
I0
I1
tp4
Rp5
(I3
S'|'
p6
NNNI96
I1
I0
tp7
bS'http://www.cnbc.com/2016/10/27/clinton-nearly-doubles-lead-over-trump-in-latest-cnbc-survey.html'
p8
tp9
Rp10
(lp11
S'http://fm.cnbc.com/applications/cnbc.com/resources/editorialfiles/2016/10/27/survey.pdf'
p12
asg1
(g2
(S'S70'
p13
I0
I1
tp14
Rp15
(I3
S'|'
p16
NNNI70
I1
I0
tp17
bS'http://www.cnn.com/2016/08/03/opinions/libertarians-opinion-zwolinski/'
p18
tp19
Rp20
(lp21
S'http://i2.cdn.turner.com/cnn/2016/images/07/17/rel8a.-.2016.pdf'
p22
asg1
(g2
(S'S115'
p23
I0
I1
tp24
Rp25
(I3
S'|'
p26
NNNI115
I1
I0
tp27
bS'http://www.marketwatch.com/story/polls-show-clinton-widening-lead-over-trump-and-no-its-not-a-conspiracy-2016-10-19'
p28
tp29
Rp30
(lp31
S'http://www.bloomberg.com/politics/articles/2016-10-19/national-poll'
p32
asg1
(g2
(S'S65'
p33
I0
I1
tp34
Rp35
(I3
S'|'
p36
NNNI65
I1
I0
tp37
bS'http://time.com/4554576/donald-trump-trustworthy-hillary-clinton/'
p38
tp39
Rp40
(lp41
S'https://www.washingtonpost.com/news/the-fix/wp/2016/11/02/tracking-poll-finds-race-tied-as-trump-opens-up-an-8-point-edge-on-honesty/'
p42
aS'https://www.washingtonpost.com/news/the-fix/wp/2016/11/02/tracking-poll-finds-race-tied-as-trump-opens-up-an-8-point-edge-on-honesty/'
p43
asg1
(g2
(S'S79'
p44
I0
I1
tp45
Rp46
(I3
S'|'
p47
NNNI79
I1
I0
tp48
bS'http://newbostonpost.com/2016/09/29/why-the-pundits-are-wrong-about-the-debate/'
p49
tp50
Rp51
(lp52
S'http://i2.cdn.turner.com/cnn/2016/images/09/05/rel13a.-.2016.post-labor.day.pdf'
p53
asg1
(g2
(S'S73'
p54
I0
I1
tp55
Rp56
(I3
S'|'
p57
NNNI73
I1
I0
tp58
bS'http://reason.com/blog/2016/09/11/gary-johnson-needs-to-average-25-in-his'
p59
tp60
Rp61
(lp62
S'http://www.langerresearch.com/wp-content/uploads/1181a12016Election.pdf'
p63
aS'https://morningconsult.com/2016/09/11/presidential-race-near-toss-among-likely-voters/'
p64
aS'http://www.breitbart.com/2016-presidential-race/2016/09/11/breitbartgravis-poll-clinton-at-43-leads-trump-at-40/'
p65
aS'http://www.nbcnews.com/politics/2016-election/clinton-holds-steady-against-trump-campaign-enters-final-weeks-poll-n642931'
p66
aS'http://m.rasmussenreports.com/public_content/politics/elections/election_2016/white_house_watch'
p67
aS'http://zogbyanalytics.com/news/756-clinton-and-trump-in-statistical-tie-trump-has-closed-the-gap-among-older-millennials'
p68
asg1
(g2
(S'S90'
p69
I0
I1
tp70
Rp71
(I3
S'|'
p72
NNNI90
I1
I0
tp73
bS'http://newbostonpost.com/2016/08/24/clinton-and-trump-both-lose-party-support-in-new-poll/'
p74
tp75
Rp76
(lp77
S'https://s3.amazonaws.com/redoakstrategic-gcs/RedOakStrategic_NationalGCSSurvey_Aug232016.pdf'
p78
asg1
(g2
(S'S119'
p79
I0
I1
tp80
Rp81
(I3
S'|'
p82
NNNI119
I1
I0
tp83
bS'https://mic.com/articles/155458/2016-presidential-polls-latest-post-debate-results-for-donald-trump-and-hillary-clinton'
p84
tp85
Rp86
(lp87
S'http://www.cbsnews.com/news/hillary-clinton-edges-ahead-of-donald-trump-after-first-presidential-debate-hofstra-2016-cbs-nyt-poll/'
p88
aS'http://www.latimes.com/politics/'
p89
asg1
(g2
(S'S113'
p90
I0
I1
tp91
Rp92
(I3
S'|'
p93
NNNI113
I1
I0
tp94
bS'http://www.breitbart.com/2016-presidential-race/2016/09/04/4-way-polls-indicate-johnson-deliver-donald-trump-win/'
p95
tp96
Rp97
(lp98
S'http://www.investors.com/politics/clinton-and-trump-are-tied-in-latest-ibdtipp-poll/'
p99
aS'http://www.publicpolicypolling.com/pdf/2015/PPP_Release_National_83016.pdf'
p100
aS'http://www.monmouth.edu/polling-institute/reports/MonmouthPoll_US_082916/'
p101
asg1
(g2
(S'S103'
p102
I0
I1
tp103
Rp104
(I3
S'|'
p105
NNNI103
I1
I0
tp106
bS'http://www.ibtimes.com/gary-johnson-poll-numbers-can-libertarian-make-presidential-debate-stage-2411874'
p107
tp108
Rp109
(lp110
S'http://www.people-press.org/2016/08/18/1-voters-general-election-preferences/'
p111
asg1
(g2
(S'S84'
p112
I0
I1
tp113
Rp114
(I3
S'|'
p115
NNNI84
I1
I0
tp116
bS'http://abcnews.go.com/Politics/clinton-trump-turnout-critical-poll/story?id=43159639'
p117
tp118
Rp119
(lp120
S'http://www.langerresearch.com/wp-content/uploads/1184a82016ElectionTrackingNo8.pdf'
p121
asg1
(g2
(S'S138'
p122
I0
I1
tp123
Rp124
(I3
S'|'
p125
NNNI138
I1
I0
tp126
bS'https://www.washingtonpost.com/news/the-fix/wp/2016/11/04/dont-look-now-the-electoral-map-is-definitely-moving-in-donald-trumps-direction/'
p127
tp128
Rp129
(lp130
S'https://www.washingtonpost.com/news/the-fix/wp/2016/11/04/clinton-up-47-44-in-post-abc-tracking-poll-despite-trumps-9-point-edge-on-dealing-with-corruption/'
p131
asg1
(g2
(S'S103'
p132
I0
I1
tp133
Rp134
(I3
S'|'
p135
NNNI103
I1
I0
tp136
bS'http://hotair.com/archives/2016/08/09/new-national-and-pennsylvania-polls-pretty-much-what-youd-expect/'
p137
tp138
Rp139
(lp140
S'http://www.nbcnews.com/politics/2016-election/poll-clinton-opens-double-digit-lead-over-trump-n625676'
p141
aS'http://www.nbcnews.com/politics/2016-election/poll-clinton-opens-double-digit-lead-over-trump-n625676'
p142
asg1
(g2
(S'S70'
p143
I0
I1
tp144
Rp145
(I3
S'|'
p146
NNNI70
I1
I0
tp147
bS'http://www.people-press.org/2016/08/18/5-issues-and-the-2016-campaign/'
p148
tp149
Rp150
(lp151
S'http://www.people-press.org/2016/08/18/1-voters-general-election-preferences/'
p152
aS'http://www.people-press.org/2016/08/18/1-voters-general-election-preferences/'
p153
aS'http://www.people-press.org/2016/10/27/as-election-nears-voters-divided-over-democracy-and-respect/'
p154
asg1
(g2
(S'S88'
p155
I0
I1
tp156
Rp157
(I3
S'|'
p158
NNNI88
I1
I0
tp159
bS'http://www.masslive.com/politics/index.ssf/2016/11/polls_donald_trump_hillary_cli_1.html'
p160
tp161
Rp162
(lp163
S'http://www.langerresearch.com/wp-content/uploads/1184a102016ElectionTrackingNo10.pdf'
p164
aS'http://cesrusc.org/election/'
p165
aS'http://www.investors.com/politics/ibd-tipp-presidential-election-poll/'
p166
aS'http://www.nbcnews.com/storyline/data-points/poll-clinton-maintains-national-lead-over-trump-despite-fbi-letter-n675771'
p167
asg1
(g2
(S'S114'
p168
I0
I1
tp169
Rp170
(I3
S'|'
p171
NNNI114
I1
I0
tp172
bS'http://www.poynter.org/2016/monmouth-poll-60-percent-of-americans-want-moderators-to-fact-check-the-debate/432178/'
p173
tp174
Rp175
(lp176
S'http://www.monmouth.edu/polling-institute/reports/MonmouthPoll_US_092616/'
p177
aS'http://www.monmouth.edu/polling-institute/reports/MonmouthPoll_US_092616/'
p178
asg1
(g2
(S'S97'
p179
I0
I1
tp180
Rp181
(I3
S'|'
p182
NNNI97
I1
I0
tp183
bS'http://www.ibtimes.com/who-winning-election-latest-trump-clinton-polls-ahead-final-debate-2433588'
p184
tp185
Rp186
(lp187
S'http://www.cbsnews.com/news/cbs-poll-clintons-lead-over-trump-widens-with-three-weeks-to-go/'
p188
aS'http://www.rasmussenreports.com/public_content/politics/elections/election_2016/white_house_watch_oct18'
p189
asg1
(g2
(S'S85'
p190
I0
I1
tp191
Rp192
(I3
S'|'
p193
NNNI85
I1
I0
tp194
bS'http://www.thenewstribune.com/news/politics-government/election/article111309232.html'
p195
tp196
Rp197
(lp198
S'http://www.langerresearch.com/wp-content/uploads/1184a72016ElectionTrackingNo7.pdf'
p199
aS'http://cesrusc.org/election/'
p200
asg1
(g2
(S'S153'
p201
I0
I1
tp202
Rp203
(I3
S'|'
p204
NNNI153
I1
I0
tp205
bS'http://www.deseretnews.com/article/865666603/Election-links-Clinton-leads-some-close-polls-a-look-inside-the-Trump-campaign-McMullin-profiled.html?pg=all'
p206
tp207
Rp208
(lp209
S'http://www.bloomberg.com/politics/articles/2016-11-07/national-poll'
p210
asg1
(g2
(S'S120'
p211
I0
I1
tp212
Rp213
(I3
S'|'
p214
NNNI120
I1
I0
tp215
bS'http://www.breitbart.com/2016-presidential-race/2016/10/05/breitbartgravis-poll-trump-gains-now-tied-with-clinton-44-44/'
p216
tp217
Rp218
(lp219
S'http://www.breitbart.com/2016-presidential-race/2016/09/23/breitbartgravis-poll-clinton-holds-national-lead-at-44-trump-40/'
p220
aS'http://www.breitbart.com/2016-presidential-race/2016/09/11/breitbartgravis-poll-clinton-at-43-leads-trump-at-40/'
p221
asg1
(g2
(S'S77'
p222
I0
I1
tp223
Rp224
(I3
S'|'
p225
NNNI77
I1
I0
tp226
bS'http://www.politico.com/story/2016/10/battleground-polls-clinton-trump-230507'
p227
tp228
Rp229
(lp230
S'http://www.langerresearch.com/wp-content/uploads/1184a82016ElectionTrackingNo8.pdf'
p231
asg1
(g2
(S'S110'
p232
I0
I1
tp233
Rp234
(I3
S'|'
p235
NNNI110
I1
I0
tp236
bS'http://www.ibtimes.com/latest-poll-most-accurate-survey-has-donald-trump-leading-hillary-clinton-point-2434221'
p237
tp238
Rp239
(lp240
S'http://www.investors.com/politics/trump-leads-clinton-by-one-point-going-into-debate-in-ibdtipp-tracking-poll/'
p241
aS'http://www.investors.com/politics/ibd-tipp-presidential-election-poll/'
p242
asg1
(g2
(S'S84'
p243
I0
I1
tp244
Rp245
(I3
S'|'
p246
NNNI84
I1
I0
tp247
bS'http://www.cbsnews.com/news/clinton-leads-trump-with-five-weeks-to-go-cbs-news-poll/'
p248
tp249
Rp250
(lp251
S'http://www.cbsnews.com/news/hillary-clinton-edges-ahead-of-donald-trump-after-first-presidential-debate-hofstra-2016-cbs-nyt-poll/'
p252
asg1
(g2
(S'S106'
p253
I0
I1
tp254
Rp255
(I3
S'|'
p256
NNNI106
I1
I0
tp257
bS'http://www.nbcnews.com/politics/2016-election/trump-s-history-undermines-new-outreach-black-voters-n635821'
p258
tp259
Rp260
(lp261
S'http://www.nbcnews.com/politics/2016-election/trump-faces-hurdle-minority-voters-clinton-maintains-lead-poll-shows-n636061'
p262
asg1
(g2
(S'S121'
p263
I0
I1
tp264
Rp265
(I3
S'|'
p266
NNNI121
I1
I0
tp267
bS'http://fivethirtyeight.com/features/election-update-there-are-4-ways-this-election-can-end-and-3-involve-clinton-winning/'
p268
tp269
Rp270
(lp271
S'http://www.politico.com/f/?id=00000157-e699-dd9d-ad7f-efdf0ec20001'
p272
aS'https://luc.id/2016-presidential-tracker/'
p273
asg1
(g2
(S'S182'
p274
I0
I1
tp275
Rp276
(I3
S'|'
p277
NNNI182
I1
I0
tp278
bS'https://www.washingtonpost.com/news/post-politics/paloma/the-daily-trail/2016/08/04/the-daily-trail-donald-trump-s-love-affair-with-polls-is-definitely-over/57a3cf3dcd249a7e29d0cf79/'
p279
tp280
Rp281
(lp282
S'http://www.mcclatchydc.com/news/politics-government/election/article93763582.html'
p283
asg1
(g2
(S'S107'
p284
I0
I1
tp285
Rp286
(I3
S'|'
p287
NNNI107
I1
I0
tp288
bS'http://www.westernjournalism.com/rush-limbaugh-says-clinton-campaign-plagued-with-doubt-on-eve-of-election/'
p289
tp290
Rp291
(lp292
S'http://www.langerresearch.com/wp-content/uploads/1184a102016ElectionTrackingNo10.pdf'
p293
asg1
(g2
(S'S113'
p294
I0
I1
tp295
Rp296
(I3
S'|'
p297
NNNI113
I1
I0
tp298
bS'http://www.nbcnews.com/storyline/2016-election-day/conflicting-numbers-one-clear-conclusion-clinton-ahead-n673991'
p299
tp300
Rp301
(lp302
S'http://ap-gfkpoll.com/main/wp-content/uploads/2016/10/October-2016-AP-GfK-Poll-Topline_Campaign.pdf'
p303
aS'http://fm.cnbc.com/applications/cnbc.com/resources/editorialfiles/2016/10/27/survey.pdf'
p304
asg1
(g2
(S'S132'
p305
I0
I1
tp306
Rp307
(I3
S'|'
p308
NNNI132
I1
I0
tp309
bS'http://www.breitbart.com/2016-presidential-race/2016/11/07/poll-donald-trump-leads-hillary-clinton-two-points-24-hours-election-day/'
p310
tp311
Rp312
(lp313
S'http://www.investors.com/politics/ibd-tipp-presidential-election-poll/'
p314
asg1
(g2
(S'S101'
p315
I0
I1
tp316
Rp317
(I3
S'|'
p318
NNNI101
I1
I0
tp319
bS'http://nymag.com/daily/intelligencer/2016/10/polls-trump-gains-on-clinton-but-fbi-effect-unclear.html'
p320
tp321
Rp322
(lp323
S'http://www.politico.com/story/2016/10/clinton-emails-comey-poll-politico-morning-consult-230519'
p324
asg1
(g2
(S'S87'
p325
I0
I1
tp326
Rp327
(I3
S'|'
p328
NNNI87
I1
I0
tp329
bS'http://www.cnn.com/2016/10/16/politics/hillary-clinton-donald-trump-presidential-polls/'
p330
tp331
Rp332
(lp333
S'http://www.nbcnews.com/politics/first-read/clinton-holds-11-point-national-lead-over-trump-nbc-wsj-n666986'
p334
asg1
(g2
(S'S116'
p335
I0
I1
tp336
Rp337
(I3
S'|'
p338
NNNI116
I1
I0
tp339
bS'http://ijr.com/wildfire/2016/10/719359-3-big-pollsters-weighed-in-with-their-2016-election-maps-and-look-out-martha/'
p340
tp341
Rp342
(lp343
S'http://www.investors.com/politics/trump-leads-clinton-by-one-point-going-into-debate-in-ibdtipp-tracking-poll/'
p344
asg1
(g2
(S'S119'
p345
I0
I1
tp346
Rp347
(I3
S'|'
p348
NNNI119
I1
I0
tp349
bS'http://www.people-press.org/2016/09/21/in-their-own-words-why-voters-support-and-have-concerns-about-clinton-and-trump/'
p350
tp351
Rp352
(lp353
S'http://www.people-press.org/2016/10/27/as-election-nears-voters-divided-over-democracy-and-respect/'
p354
asg1
(g2
(S'S112'
p355
I0
I1
tp356
Rp357
(I3
S'|'
p358
NNNI112
I1
I0
tp359
bS'http://www.ibtimes.com/clinton-vs-trump-latest-polls-surveymonkey-shows-hillary-win-tough-road-gop-black-2405862'
p360
tp361
Rp362
(lp363
S'http://www.nbcnews.com/politics/2016-election/trump-faces-hurdle-minority-voters-clinton-maintains-lead-poll-shows-n636061'
p364
asg1
(g2
(S'S101'
p365
I0
I1
tp366
Rp367
(I3
S'|'
p368
NNNI101
I1
I0
tp369
bS'http://www.cbsnews.com/news/clinton-trump-even-in-ohio-and-florida-two-days-before-election-cbs-poll/'
p370
tp371
Rp372
(lp373
S'http://www.cbsnews.com/news/five-days-to-go-the-presidential-race-tightens-cbsnyt-poll/'
p374
asg1
(g2
(S'S54'
p375
I0
I1
tp376
Rp377
(I3
S'|'
p378
NNNI54
I1
I0
tp379
bS'http://www.people-press.org/2016/08/18/methodology-75/'
p380
tp381
Rp382
(lp383
S'http://www.people-press.org/2016/08/18/1-voters-general-election-preferences/'
p384
aS'http://www.people-press.org/2016/08/18/1-voters-general-election-preferences/'
p385
aS'http://www.people-press.org/2016/10/27/as-election-nears-voters-divided-over-democracy-and-respect/'
p386
asg1
(g2
(S'S80'
p387
I0
I1
tp388
Rp389
(I3
S'|'
p390
NNNI80
I1
I0
tp391
bS'http://www.latimes.com/politics/la-na-pol-tracking-poll-20160805-snap-story.html'
p392
tp393
Rp394
(lp395
S'http://www.mcclatchydc.com/news/politics-government/election/article93763582.html'
p396
asg1
(g2
(S'S97'
p397
I0
I1
tp398
Rp399
(I3
S'|'
p400
NNNI97
I1
I0
tp401
bS'http://www.nbcnews.com/politics/2016-election/poll-clinton-leads-trump-ahead-first-debate-n652141'
p402
tp403
Rp404
(lp405
S'https://www.scribd.com/document/324821200/16804-NBCWSJ-September-Poll-9-21-Release?secret_password=gKkeD7pKqo5rYoSPNmfU'
p406
aS'https://www.scribd.com/document/324821200/16804-NBCWSJ-September-Poll-9-21-Release?secret_password=gKkeD7pKqo5rYoSPNmfU'
p407
asg1
(g2
(S'S98'
p408
I0
I1
tp409
Rp410
(I3
S'|'
p411
NNNI98
I1
I0
tp412
bS'http://www.cbsnews.com/news/presidential-election-results-2016-what-time-how-to-watch-live-stream/'
p413
tp414
Rp415
(lp416
S'http://www.cbsnews.com/news/cbs-news-poll-state-of-the-race-the-day-before-election-day/'
p417
asg1
(g2
(S'S117'
p418
I0
I1
tp419
Rp420
(I3
S'|'
p421
NNNI117
I1
I0
tp422
bS'http://www.nbcnews.com/storyline/data-points/poll-clinton-maintains-big-lead-voters-doubt-trump-s-temperament-n631351'
p423
tp424
Rp425
(lp426
S'https://www.scribd.com/document/321277283/NBC-News-SurveyMonkey-Toplines-and-Methodology-8-8-8-14?secret_password=kn8HkRF6D2HoWP7ICAXM'
p427
asg1
(g2
(S'S115'
p428
I0
I1
tp429
Rp430
(I3
S'|'
p431
NNNI115
I1
I0
tp432
bS'http://www.independent.co.uk/voices/us-election-will-trump-clinton-win-electoral-college-swing-states-a7402351.html'
p433
tp434
Rp435
(lp436
S'http://cesrusc.org/election/'
p437
aS'http://www.nbcnews.com/storyline/data-points/poll-clinton-maintains-national-lead-over-trump-despite-fbi-letter-n675771'
p438
asg1
(g2
(S'S77'
p439
I0
I1
tp440
Rp441
(I3
S'|'
p442
NNNI77
I1
I0
tp443
bS'http://theweek.com/speedreads/658848/trump-leads-by-1-point-new-national-poll'
p444
tp445
Rp446
(lp447
S'http://www.nbcnews.com/storyline/data-points/poll-clinton-maintains-national-lead-over-trump-despite-fbi-letter-n675771'
p448
asg1
(g2
(S'S85'
p449
I0
I1
tp450
Rp451
(I3
S'|'
p452
NNNI85
I1
I0
tp453
bS'http://www.sbstatesman.com/2016/10/16/professors-weigh-in-on-election-forecast-model/'
p454
tp455
Rp456
(lp457
S'https://www.qu.edu/news-and-events/quinnipiac-university-poll/national/release-detail?ReleaseID=2386'
p458
asg1
(g2
(S'S161'
p459
I0
I1
tp460
Rp461
(I3
S'|'
p462
NNNI161
I1
I0
tp463
bS'http://www.inquisitr.com/3660123/marijuana-legalization-polls-2016-at-least-three-states-likely-to-approve-legal-pot-as-nationwide-support-reaches-all-time-high/'
p464
tp465
Rp466
(lp467
S'http://www.prri.org/wp-content/uploads/2016/10/PRRI-2016-American-Values-Survey-Topline.pdf'
p468
asg1
(g2
(S'S105'
p469
I0
I1
tp470
Rp471
(I3
S'|'
p472
NNNI105
I1
I0
tp473
bS'http://fivethirtyeight.com/features/election-update-the-campaign-is-almost-over-and-heres-where-we-stand/'
p474
tp475
Rp476
(lp477
S'http://www.latimes.com/politics/'
p478
asg1
(g2
(S'S110'
p479
I0
I1
tp480
Rp481
(I3
S'|'
p482
NNNI110
I1
I0
tp483
bS'http://www.slate.com/blogs/the_slatest/2016/10/04/how_trump_and_clinton_are_faring_in_the_polls_this_week.html'
p484
tp485
Rp486
(lp487
S'http://www.cbsnews.com/news/hillary-clinton-edges-ahead-of-donald-trump-after-first-presidential-debate-hofstra-2016-cbs-nyt-poll/'
p488
aS'http://www.oann.com/pollnational/'
p489
aS'http://www.latimes.com/politics/'
p490
asg1
(g2
(S'S105'
p491
I0
I1
tp492
Rp493
(I3
S'|'
p494
NNNI105
I1
I0
tp495
bS'http://theweek.com/speedreads/656758/trump-could-lose-utah-candidate-over-half-americans-have-never-heard'
p496
tp497
Rp498
(lp499
S'http://www.politico.com/f/?id=00000157-e699-dd9d-ad7f-efdf0ec20001'
p500
asg1
(g2
(S'S86'
p501
I0
I1
tp502
Rp503
(I3
S'|'
p504
NNNI86
I1
I0
tp505
bS'http://www.politico.com/story/2016/09/hillary-clinton-donald-trump-nbc-wsj-poll-228490'
p506
tp507
Rp508
(lp509
S'https://www.scribd.com/document/324821200/16804-NBCWSJ-September-Poll-9-21-Release?secret_password=gKkeD7pKqo5rYoSPNmfU'
p510
asg1
(g2
(S'S114'
p511
I0
I1
tp512
Rp513
(I3
S'|'
p514
NNNI114
I1
I0
tp515
bS'http://www.bloomberg.com/news/articles/2016-11-08/volatility-drops-as-dollar-holds-gain-with-clinton-leading-polls'
p516
tp517
Rp518
(lp519
S'http://www.bloomberg.com/politics/articles/2016-11-07/national-poll'
p520
aS'http://www.bloomberg.com/politics/articles/2016-11-07/national-poll'
p521
asg1
(g2
(S'S114'
p522
I0
I1
tp523
Rp524
(I3
S'|'
p525
NNNI114
I1
I0
tp526
bS'http://www.ibtimes.com/donald-trump-african-americans-black-voter-polls-reflect-gop-nominees-controversial-2422197'
p527
tp528
Rp529
(lp530
S'http://www.langerresearch.com/wp-content/uploads/1181a12016Election.pdf'
p531
asg1
(g2
(S'S97'
p532
I0
I1
tp533
Rp534
(I3
S'|'
p535
NNNI97
I1
I0
tp536
bS'http://www.foxnews.com/politics/2016/10/26/fox-news-poll-clinton-leads-trump-by-three-points.html'
p537
tp538
Rp539
(lp540
S'http://www.foxnews.com/politics/interactive/2016/10/26/fox-news-poll-october-26-2016/'
p541
asg1
(g2
(S'S95'
p542
I0
I1
tp543
Rp544
(I3
S'|'
p545
NNNI95
I1
I0
tp546
bS'http://www.nbcnews.com/storyline/data-points/poll-clinton-maintains-solid-national-lead-n667751'
p547
tp548
Rp549
(lp550
S'https://www.scribd.com/document/327928411/NBC-News-SurveyMonkey-Toplines-and-Methodology-1010-1016?secret_password=KFSRdIOYrPmuQimDhEFd'
p551
asg1
(g2
(S'S162'
p552
I0
I1
tp553
Rp554
(I3
S'|'
p555
NNNI162
I1
I0
tp556
bS'https://www.washingtonpost.com/news/the-fix/wp/2016/10/17/no-presidential-candidate-in-recorded-history-has-overcome-donald-trumps-current-poll-deficit-this-late/'
p557
tp558
Rp559
(lp560
S'https://www.monmouth.edu/polling-institute/reports/MonmouthPoll_US_101716/'
p561
asg1
(g2
(S'S109'
p562
I0
I1
tp563
Rp564
(I3
S'|'
p565
NNNI109
I1
I0
tp566
bS'http://www.nbcnews.com/politics/2016-election/donald-trump-pushes-republican-party-its-breaking-point-n622576'
p567
tp568
Rp569
(lp570
S'http://www.nbcnews.com/politics/2016-election/poll-clinton-support-spikes-following-democratic-convention-n621071'
p571
asg1
(g2
(S'S95'
p572
I0
I1
tp573
Rp574
(I3
S'|'
p575
NNNI95
I1
I0
tp576
bS'http://www.cnbc.com/2016/10/17/heres-why-clinton-trump-poll-results-are-all-over-the-place.html'
p577
tp578
Rp579
(lp580
S'http://www.nbcnews.com/politics/first-read/clinton-holds-11-point-national-lead-over-trump-nbc-wsj-n666986'
p581
asg1
(g2
(S'S154'
p582
I0
I1
tp583
Rp584
(I3
S'|'
p585
NNNI154
I1
I0
tp586
bS'http://www.dailymail.co.uk/news/article-3719851/Hillary-Clinton-comes-post-convention-polling-continues-struggle-perception-s-dishonest-untrustworthy.html'
p587
tp588
Rp589
(lp590
S'http://www.nbcnews.com/politics/2016-election/poll-clinton-support-spikes-following-democratic-convention-n621071'
p591
aS'http://i2.cdn.turner.com/cnn/2016/images/08/01/2016.post-dem.convention.pdf'
p592
aS'http://i2.cdn.turner.com/cnn/2016/images/08/01/2016.post-dem.convention.pdf'
p593
aS'http://www.nbcnews.com/politics/2016-election/poll-clinton-support-spikes-following-democratic-convention-n621071'
p594
asg1
(g2
(S'S102'
p595
I0
I1
tp596
Rp597
(I3
S'|'
p598
NNNI102
I1
I0
tp599
bS'https://www.washingtonpost.com/news/the-fix/wp/2016/08/28/donald-trump-has-a-massive-catholic-problem/'
p600
tp601
Rp602
(lp603
S'http://apps.washingtonpost.com/g/page/politics/washington-post-abc-news-poll-aug-1-4-2016/2071/'
p604
asg1
(g2
(S'S104'
p605
I0
I1
tp606
Rp607
(I3
S'|'
p608
NNNI104
I1
I0
tp609
bS'http://www.nbcnews.com/politics/2016-election/poll-clinton-maintains-50-point-lead-among-latinos-n667326'
p610
tp611
Rp612
(lp613
S'http://www.nbcnews.com/politics/first-read/clinton-holds-11-point-national-lead-over-trump-nbc-wsj-n666986'
p614
asg1
(g2
(S'S66'
p615
I0
I1
tp616
Rp617
(I3
S'|'
p618
NNNI66
I1
I0
tp619
bS'https://www.rt.com/usa/364095-majority-voters-elections-stressful/'
p620
tp621
Rp622
(lp623
S'http://www.langerresearch.com/wp-content/uploads/1184a32016ElectionTrackingNo3.pdf'
p624
asg1
(g2
(S'S89'
p625
I0
I1
tp626
Rp627
(I3
S'|'
p628
NNNI89
I1
I0
tp629
bS'http://www.foxnews.com/politics/2016/10/10/trump-removes-all-doubt-its-his-party-now.html'
p630
tp631
Rp632
(lp633
S'https://www.qu.edu/news-and-events/quinnipiac-university-poll/national/release-detail?ReleaseID=2386'
p634
aS'http://www.cbsnews.com/news/hillary-clinton-edges-ahead-of-donald-trump-after-first-presidential-debate-hofstra-2016-cbs-nyt-poll/'
p635
aS'https://www.qu.edu/news-and-events/quinnipiac-university-poll/national/release-detail?ReleaseID=2386'
p636
aS'http://www.prri.org/wp-content/uploads/2016/10/PRRI-Atlantic-Survey-Topline.pdf'
p637
asg1
(g2
(S'S95'
p638
I0
I1
tp639
Rp640
(I3
S'|'
p641
NNNI95
I1
I0
tp642
bS'http://www.cbsnews.com/news/poll-are-voters-likely-to-accept-the-presidential-election-results/'
p643
tp644
Rp645
(lp646
S'http://www.cbsnews.com/news/five-days-to-go-the-presidential-race-tightens-cbsnyt-poll/'
p647
asg1
(g2
(S'S108'
p648
I0
I1
tp649
Rp650
(I3
S'|'
p651
NNNI108
I1
I0
tp652
bS'http://fivethirtyeight.com/features/election-update-comey-or-not-trump-continues-to-narrow-gap-with-clinton/'
p653
tp654
Rp655
(lp656
S'http://www.politico.com/story/2016/10/clinton-emails-comey-poll-politico-morning-consult-230519'
p657
aS'https://luc.id/2016-presidential-tracker/'
p658
aS'http://www.latimes.com/politics/'
p659
aS'http://www.investors.com/politics/ibd-tipp-presidential-election-poll/'
p660
aS'http://www.langerresearch.com/wp-content/uploads/1184a92016ElectionTrackingNo9.pdf'
p661
aS'http://www.rasmussenreports.com/public_content/politics/elections/election_2016/white_house_watch_oct31'
p662
asg1
(g2
(S'S127'
p663
I0
I1
tp664
Rp665
(I3
S'|'
p666
NNNI127
I1
I0
tp667
bS'http://www.inquisitr.com/3684891/presidential-polls-2016-who-will-win-election-skewed-donald-trump-hillary-clinton-online-vote/'
p668
tp669
Rp670
(lp671
S'http://cesrusc.org/election/'
p672
asg1
(g2
(S'S97'
p673
I0
I1
tp674
Rp675
(I3
S'|'
p676
NNNI97
I1
I0
tp677
bS'http://www.newyorker.com/news/john-cassidy/the-big-question-about-donald-trumps-rise-in-the-polls'
p678
tp679
Rp680
(lp681
S'http://i2.cdn.turner.com/cnn/2016/images/06/21/rel7b.-.2016.general.pdf'
p682
aS'http://i2.cdn.turner.com/cnn/2016/images/09/05/rel13a.-.2016.post-labor.day.pdf'
p683
aS'https://d25d2506sfb94s.cloudfront.net/cumulus_uploads/document/cx4orjzwhb/econTabReport.pdf'
p684
asg1
(g2
(S'S73'
p685
I0
I1
tp686
Rp687
(I3
S'|'
p688
NNNI73
I1
I0
tp689
bS'http://www.newsmax.com/Headline/Clinton-Leads-Trump/2016/10/28/id/755766/'
p690
tp691
Rp692
(lp693
S'http://www.investors.com/politics/ibd-tipp-presidential-election-poll/'
p694
asg1
(g2
(S'S134'
p695
I0
I1
tp696
Rp697
(I3
S'|'
p698
NNNI134
I1
I0
tp699
bS'http://www.slate.com/blogs/the_slatest/2016/11/06/final_polls_hand_good_news_to_hillary_clinton_but_battlegrounds_still_contested.html'
p700
tp701
Rp702
(lp703
S'http://www.nbcnews.com/storyline/2016-election-day/final-nbc-wsj-poll-clinton-holds-four-point-national-lead-n678611'
p704
aS'http://abcnews.go.com/Politics/qualifications-temperament-aid-clinton-2016-campaigns-closing-days/story?id=43327300'
p705
aS'https://morningconsult.com/2016/11/06/final-2016-poll-morning-consult/'
p706
aS'https://morningconsult.com/2016/11/06/final-2016-poll-morning-consult/'
p707
aS'https://morningconsult.com/2016/11/06/final-2016-poll-morning-consult/'
p708
asg1
(g2
(S'S65'
p709
I0
I1
tp710
Rp711
(I3
S'|'
p712
NNNI65
I1
I0
tp713
bS'http://www.politico.com/story/2016/10/donald-trump-polling-229916'
p714
tp715
Rp716
(lp717
S'https://www.monmouth.edu/polling-institute/reports/MonmouthPoll_US_101716/'
p718
asg1
(g2
(S'S78'
p719
I0
I1
tp720
Rp721
(I3
S'|'
p722
NNNI78
I1
I0
tp723
bS'http://www.newsweek.com/trump-clinton-polls-evan-mcmullin-election-2016-514332'
p724
tp725
Rp726
(lp727
S'https://today.yougov.com/news/2016/10/27/yougoveconomist-poll-october-22-26-2016/'
p728
asg1
(g2
(S'S78'
p729
I0
I1
tp730
Rp731
(I3
S'|'
p732
NNNI78
I1
I0
tp733
bS'http://dailycaller.com/2016/08/04/recent-polls-spell-trouble-for-donald-trump/'
p734
tp735
Rp736
(lp737
S'http://www.rasmussenreports.com/public_content/politics/elections/election_2016/white_house_watch'
p738
asg1
(g2
(S'S128'
p739
I0
I1
tp740
Rp741
(I3
S'|'
p742
NNNI128
I1
I0
tp743
bS'http://www.salon.com/2016/10/18/its-the-republicans-who-rig-elections-donald-the-gop-history-of-voter-suppression-goes-way-back/'
p744
tp745
Rp746
(lp747
S'http://www.politico.com/story/2016/10/poll-41-percent-of-voters-say-the-election-could-be-stolen-from-trump-229871'
p748
asg1
(g2
(S'S78'
p749
I0
I1
tp750
Rp751
(I3
S'|'
p752
NNNI78
I1
I0
tp753
bS'http://talkingpointsmemo.com/polltracker/clinton-leads-10-points-national-poll'
p754
tp755
Rp756
(lp757
S'http://fm.cnbc.com/applications/cnbc.com/resources/editorialfiles/2016/10/27/survey.pdf'
p758
aS'http://ap-gfkpoll.com/main/wp-content/uploads/2016/10/October-2016-AP-GfK-Poll-Topline_Campaign.pdf'
p759
aS'http://www.foxnews.com/politics/interactive/2016/10/26/fox-news-poll-october-26-2016/'
p760
asg1
(g2
(S'S106'
p761
I0
I1
tp762
Rp763
(I3
S'|'
p764
NNNI106
I1
I0
tp765
bS'http://www.nbcnews.com/politics/first-read/clinton-holds-11-point-national-lead-over-trump-nbc-wsj-n666986'
p766
tp767
Rp768
(lp769
S'http://www.nbcnews.com/politics/first-read/post-debate-poll-shows-clinton-holding-9-point-lead-over-n664541'
p770
asg1
(g2
(S'S169'
p771
I0
I1
tp772
Rp773
(I3
S'|'
p774
NNNI169
I1
I0
tp775
bS'http://www.universityherald.com/articles/44862/20161018/top-news-who-will-be-americas-next-president-in-2016-check-out-upshots-elections-model-forecast-results-video.htm'
p776
tp777
Rp778
(lp779
S'http://www.cbsnews.com/news/cbs-poll-clintons-lead-over-trump-widens-with-three-weeks-to-go/'
p780
asg1
(g2
(S'S65'
p781
I0
I1
tp782
Rp783
(I3
S'|'
p784
NNNI65
I1
I0
tp785
bS'http://www.politico.com/story/2016/09/donald-trump-polling-227750'
p786
tp787
Rp788
(lp789
S'http://cesrusc.org/election/'
p790
aS'http://www.foxnews.com/politics/interactive/2016/08/31/fox-news-poll-aug-31-2016/'
p791
asg1
(g2
(S'S77'
p792
I0
I1
tp793
Rp794
(I3
S'|'
p795
NNNI77
I1
I0
tp796
bS'http://www.politico.com/story/2016/10/clinton-trump-battleground-polls-229064'
p797
tp798
Rp799
(lp800
S'http://i2.cdn.turner.com/cnn/2016/images/10/03/2016.race.pdf'
p801
asg1
(g2
(S'S121'
p802
I0
I1
tp803
Rp804
(I3
S'|'
p805
NNNI121
I1
I0
tp806
bS'http://www.bloomberg.com/politics/articles/2016-10-31/u-s-election-wrap-ind-senate-race-tied-as-trump-gains-poll-iuyl6e7h'
p807
tp808
Rp809
(lp810
S'http://www.nbcnews.com/storyline/data-points/poll-clinton-maintains-national-lead-over-trump-despite-fbi-letter-n675771'
p811
aS'http://www.politico.com/story/2016/10/clinton-emails-comey-poll-politico-morning-consult-230519'
p812
asg1
(g2
(S'S49'
p813
I0
I1
tp814
Rp815
(I3
S'|'
p816
NNNI49
I1
I0
tp817
bS'http://www.bbc.com/news/election-us-2016-36990724'
p818
tp819
Rp820
(lp821
S'http://www.cbsnews.com/news/campaign-2016-did-hillary-clinton-get-a-post-convention-bump/'
p822
asg1
(g2
(S'S101'
p823
I0
I1
tp824
Rp825
(I3
S'|'
p826
NNNI101
I1
I0
tp827
bS'http://www.csmonitor.com/USA/Politics/2016/0824/Donald-Trump-s-not-so-secret-weapon-with-women-voters'
p828
tp829
Rp830
(lp831
S'http://www.nbcnews.com/politics/2016-election/trump-faces-hurdle-minority-voters-clinton-maintains-lead-poll-shows-n636061'
p832
asg1
(g2
(S'S71'
p833
I0
I1
tp834
Rp835
(I3
S'|'
p836
NNNI71
I1
I0
tp837
bS'http://www.bloomberg.com/politics/articles/2016-11-02/independents-poll'
p838
tp839
Rp840
(lp841
S'http://www.bloomberg.com/politics/articles/2016-10-19/national-poll'
p842
asg1
(g2
(S'S125'
p843
I0
I1
tp844
Rp845
(I3
S'|'
p846
NNNI125
I1
I0
tp847
bS'http://www.bloomberg.com/politics/articles/2016-11-07/u-s-election-wrap-clinton-polling-edge-aids-dem-senate-chances-iv8nhcoc'
p848
tp849
Rp850
(lp851
S'https://www.monmouth.edu/polling-institute/reports/MonmouthPoll_US_110716/'
p852
asg1
(g2
(S'S136'
p853
I0
I1
tp854
Rp855
(I3
S'|'
p856
NNNI136
I1
I0
tp857
bS'http://www.latimes.com/nation/politics/trailguide/la-na-trailguide-updates-trump-campaign-says-it-doesn-t-want-1472399339-htmlstory.html'
p858
tp859
Rp860
(lp861
S'https://morningconsult.com/2016/08/28/trump-gains-ground-clinton-black-voters-still-wary/'
p862
asg1
(g2
(S'S112'
p863
I0
I1
tp864
Rp865
(I3
S'|'
p866
NNNI112
I1
I0
tp867
bS'http://heavy.com/news/2016/09/trump-vs-clinton-millennial-support-polls-show-young-voters-heavily-favor-clinton/'
p868
tp869
Rp870
(lp871
S'http://www.publicpolicypolling.com/pdf/2015/PPP_Release_National_92916.pdf'
p872
aS'http://www.monmouth.edu/polling-institute/reports/MonmouthPoll_US_092616/'
p873
asg1
(g2
(S'S66'
p874
I0
I1
tp875
Rp876
(I3
S'|'
p877
NNNI66
I1
I0
tp878
bS'http://www.vanityfair.com/news/2016/09/hillary-clinton-debate-poll'
p879
tp880
Rp881
(lp882
S'https://morningconsult.com/wp-content/uploads/2016/09/160915_crosstabs_trend_v1_LIKELYVOTERS_AD.pdf'
p883
asg1
(g2
(S'S83'
p884
I0
I1
tp885
Rp886
(I3
S'|'
p887
NNNI83
I1
I0
tp888
bS'http://www.cleveland.com/open/index.ssf/2016/11/kellyanne_conway_points_to_cub.html'
p889
tp890
Rp891
(lp892
S'http://www.cbsnews.com/news/five-days-to-go-the-presidential-race-tightens-cbsnyt-poll/'
p893
asg1
(g2
(S'S183'
p894
I0
I1
tp895
Rp896
(I3
S'|'
p897
NNNI183
I1
I0
tp898
bS'https://www.washingtonpost.com/news/the-fix/wp/2016/11/06/clinton-leads-by-five-points-nationally-with-large-advantages-on-temperament-and-qualifications-post-abc-tracking-poll-finds/'
p899
tp900
Rp901
(lp902
S'http://www.foxnews.com/politics/interactive/2016/11/04/fox-news-poll-results-11416/'
p903
aS'http://www.mcclatchydc.com/news/politics-government/election/article112635048.html'
p904
aS'http://www.investors.com/politics/ibd-tipp-presidential-election-poll/'
p905
aS'https://www.washingtonpost.com/news/the-fix/wp/2016/11/04/clinton-up-47-44-in-post-abc-tracking-poll-despite-trumps-9-point-edge-on-dealing-with-corruption/'
p906
aS'https://www.washingtonpost.com/news/the-fix/wp/2016/11/04/clinton-up-47-44-in-post-abc-tracking-poll-despite-trumps-9-point-edge-on-dealing-with-corruption/'
p907
asg1
(g2
(S'S77'
p908
I0
I1
tp909
Rp910
(I3
S'|'
p911
NNNI77
I1
I0
tp912
bS'http://www.calbuzz.com/2016/10/la-timesusc-daybreak-poll-dishonors-the-paper/'
p913
tp914
Rp915
(lp916
S'http://cesrusc.org/election/'
p917
asg1
(g2
(S'S96'
p918
I0
I1
tp919
Rp920
(I3
S'|'
p921
NNNI96
I1
I0
tp922
bS'http://nymag.com/daily/intelligencer/2016/10/new-polls-show-clinton-on-pace-for-a-landslide.html'
p923
tp924
Rp925
(lp926
S'http://www.politico.com/story/2016/10/poll-41-percent-of-voters-say-the-election-could-be-stolen-from-trump-229871'
p927
asg1
(g2
(S'S69'
p928
I0
I1
tp929
Rp930
(I3
S'|'
p931
NNNI69
I1
I0
tp932
bS'https://today.yougov.com/news/2016/08/25/lesser-two-evils-not-really/'
p933
tp934
Rp935
(lp936
S'https://today.yougov.com/news/2016/07/25/yougoveconomist-poll-july-23-24-2016/'
p937
asg1
(g2
(S'S98'
p938
I0
I1
tp939
Rp940
(I3
S'|'
p941
NNNI98
I1
I0
tp942
bS'http://thehill.com/blogs/ballot-box/presidential-races/304629-poll-clinton-leads-trump-by-3-points'
p943
tp944
Rp945
(lp946
S'http://www.bloomberg.com/politics/articles/2016-11-07/national-poll'
p947
asg1
(g2
(S'S77'
p948
I0
I1
tp949
Rp950
(I3
S'|'
p951
NNNI77
I1
I0
tp952
bS'http://www.people-press.org/2016/08/18/1-voters-general-election-preferences/'
p953
tp954
Rp955
(lp956
S'http://www.people-press.org/2016/10/27/as-election-nears-voters-divided-over-democracy-and-respect/'
p957
asg1
(g2
(S'S83'
p958
I0
I1
tp959
Rp960
(I3
S'|'
p961
NNNI83
I1
I0
tp962
bS'http://nymag.com/daily/intelligencer/2016/08/poll-trump-9-percent-young-voters.html'
p963
tp964
Rp965
(lp966
S'http://www.latimes.com/politics/'
p967
aS'http://www.mcclatchydc.com/news/politics-government/election/article93763582.html'
p968
asg1
(g2
(S'S148'
p969
I0
I1
tp970
Rp971
(I3
S'|'
p972
NNNI148
I1
I0
tp973
bS'http://www.dailymail.co.uk/news/article-3724588/Now-Hillary-ahead-15-points-Dramatic-surge-latest-poll-taken-Trump-s-feud-Captain-Khan-s-family.html'
p974
tp975
Rp976
(lp977
S'http://www.mcclatchydc.com/news/politics-government/election/article93763582.html'
p978
aS'http://www.mcclatchydc.com/news/politics-government/election/article93763582.html'
p979
asg1
(g2
(S'S92'
p980
I0
I1
tp981
Rp982
(I3
S'|'
p983
NNNI92
I1
I0
tp984
bS'https://today.yougov.com/news/2016/11/07/final-economistyougov-poll-shows-clinton-4-point-n/'
p985
tp986
Rp987
(lp988
S'https://d25d2506sfb94s.cloudfront.net/cumulus_uploads/document/l37rosbwjp/econTabReport_lv.pdf'
p989
aS'https://d25d2506sfb94s.cloudfront.net/cumulus_uploads/document/l37rosbwjp/econTabReport_lv.pdf'
p990
asg1
(g2
(S'S76'
p991
I0
I1
tp992
Rp993
(I3
S'|'
p994
NNNI76
I1
I0
tp995
bS'http://www.livetradingnews.com/white-house-watch-trump-takes-lead-18705.html'
p996
tp997
Rp998
(lp999
S'http://www.rasmussenreports.com/platinum/political_tracking_crosstabs/october_2016/crosstabs_election_2016_white_house_watch_october_9_11_2016'
p1000
asg1
(g2
(S'S49'
p1001
I0
I1
tp1002
Rp1003
(I3
S'|'
p1004
NNNI49
I1
I0
tp1005
bS'http://www.bbc.com/news/election-us-2016-37450661'
p1006
tp1007
Rp1008
(lp1009
S'http://www.langerresearch.com/wp-content/uploads/1184a92016ElectionTrackingNo9.pdf'
p1010
aS'http://i2.cdn.turner.com/cnn/2016/images/10/24/cnn.poll.pdf'
p1011
asg1
(g2
(S'S83'
p1012
I0
I1
tp1013
Rp1014
(I3
S'|'
p1015
NNNI83
I1
I0
tp1016
bS'http://www.politico.com/story/2016/09/clinton-trump-national-poll-quinnipiac-228165'
p1017
tp1018
Rp1019
(lp1020
S'https://www.qu.edu/images/polling/us/us09142016_U27xtpb.pdf'
p1021
asg1
(g2
(S'S121'
p1022
I0
I1
tp1023
Rp1024
(I3
S'|'
p1025
NNNI121
I1
I0
tp1026
bS'http://www.foxnews.com/politics/2016/09/30/fox-news-poll-clinton-ahead-trump-after-debate-fear-motivating-both-sides.html'
p1027
tp1028
Rp1029
(lp1030
S'http://www.foxnews.com/politics/interactive/2016/09/30/full-fox-news-poll-results-30/'
p1031
asg1
(g2
(S'S138'
p1032
I0
I1
tp1033
Rp1034
(I3
S'|'
p1035
NNNI138
I1
I0
tp1036
bS'http://www.breitbart.com/2016-presidential-race/2016/11/01/abc-newswashington-post-tracking-poll-donald-trump-now-leading-hillary-clinton/'
p1037
tp1038
Rp1039
(lp1040
S'http://www.langerresearch.com/wp-content/uploads/1184a102016ElectionTrackingNo10.pdf'
p1041
asg1
(g2
(S'S114'
p1042
I0
I1
tp1043
Rp1044
(I3
S'|'
p1045
NNNI114
I1
I0
tp1046
bS'http://www.nbcnews.com/storyline/2016-presidential-debates/why-dead-voters-won-t-tip-presidential-election-n668386'
p1047
tp1048
Rp1049
(lp1050
S'http://www.nbcnews.com/politics/first-read/clinton-holds-11-point-national-lead-over-trump-nbc-wsj-n666986'
p1051
asg1
(g2
(S'S116'
p1052
I0
I1
tp1053
Rp1054
(I3
S'|'
p1055
NNNI116
I1
I0
tp1056
bS'http://www.nbcnews.com/storyline/data-points/poll-clinton-leads-trump-among-likely-voters-ahead-first-debate-n654531'
p1057
tp1058
Rp1059
(lp1060
S'https://www.scribd.com/document/325385309/NBC-News-SurveyMonkey-Toplines-and-Methodology-9-19-9-25?secret_password=CqNOg89vq7VeBArrg8bF'
p1061
asg1
(g2
(S'S74'
p1062
I0
I1
tp1063
Rp1064
(I3
S'|'
p1065
NNNI74
I1
I0
tp1066
bS'http://www.politico.com/magazine/story/2016/08/gary-johnson-debates-214168'
p1067
tp1068
Rp1069
(lp1070
S'http://www.foxnews.com/politics/interactive/2016/08/03/fox-news-poll-aug-3-2016/'
p1071
aS'http://www.cbsnews.com/news/campaign-2016-did-hillary-clinton-get-a-post-convention-bump/'
p1072
aS'http://i2.cdn.turner.com/cnn/2016/images/08/01/2016.post-dem.convention.pdf'
p1073
aS'http://i2.cdn.turner.com/cnn/2016/images/08/01/2016.post-dem.convention.pdf'
p1074
asg1
(g2
(S'S118'
p1075
I0
I1
tp1076
Rp1077
(I3
S'|'
p1078
NNNI118
I1
I0
tp1079
bS'http://heavy.com/news/2016/09/2016-presidential-polls-latest-gary-johnson-debate-clinton-vs-trump-jill-stein-four-way/'
p1080
tp1081
Rp1082
(lp1083
S'http://www.rasmussenreports.com/public_content/politics/elections/election_2016/white_house_watch'
p1084
aS'https://www.qu.edu/images/polling/us/us09142016_U27xtpb.pdf'
p1085
asg1
(g2
(S'S59'
p1086
I0
I1
tp1087
Rp1088
(I3
S'|'
p1089
NNNI59
I1
I0
tp1090
bS'http://fortune.com/2016/11/06/polls-clinton-trump-election/'
p1091
tp1092
Rp1093
(lp1094
S'http://www.nbcnews.com/storyline/2016-election-day/final-nbc-wsj-poll-clinton-holds-four-point-national-lead-n678611'
p1095
aS'http://abcnews.go.com/Politics/qualifications-temperament-aid-clinton-2016-campaigns-closing-days/story?id=43327300'
p1096
aS'http://www.nbcnews.com/storyline/2016-election-day/final-nbc-wsj-poll-clinton-holds-four-point-national-lead-n678611'
p1097
aS'http://abcnews.go.com/Politics/qualifications-temperament-aid-clinton-2016-campaigns-closing-days/story?id=43327300'
p1098
asg1
(g2
(S'S72'
p1099
I0
I1
tp1100
Rp1101
(I3
S'|'
p1102
NNNI72
I1
I0
tp1103
bS'http://talkingpointsmemo.com/livewire/clinton-leads-trump-breitbart-poll'
p1104
tp1105
Rp1106
(lp1107
S'http://www.breitbart.com/2016-presidential-race/2016/08/14/breitbartgravis-poll-hillary-clinton-leads-donald-trump-42-to-37/'
p1108
asg1
(g2
(S'S70'
p1109
I0
I1
tp1110
Rp1111
(I3
S'|'
p1112
NNNI70
I1
I0
tp1113
bS'http://talkingpointsmemo.com/polltracker/clinton-expands-lead-abc-wapo'
p1114
tp1115
Rp1116
(lp1117
S'http://apps.washingtonpost.com/g/page/politics/washington-post-abc-news-national-poll-oct-10-13-2016/2102/'
p1118
asg1
(g2
(S'S89'
p1119
I0
I1
tp1120
Rp1121
(I3
S'|'
p1122
NNNI89
I1
I0
tp1123
bS'http://www.foxbusiness.com/politics/2016/11/01/rick-santorum-clinton-is-melting-down.html'
p1124
tp1125
Rp1126
(lp1127
S'http://www.langerresearch.com/wp-content/uploads/1184a102016ElectionTrackingNo10.pdf'
p1128
asg1
(g2
(S'S87'
p1129
I0
I1
tp1130
Rp1131
(I3
S'|'
p1132
NNNI87
I1
I0
tp1133
bS'http://www.cnn.com/2016/10/19/politics/hillary-clinton-donald-trump-presidential-polls/'
p1134
tp1135
Rp1136
(lp1137
S'http://www.bloomberg.com/politics/articles/2016-10-19/national-poll'
p1138
asg1
(g2
(S'S136'
p1139
I0
I1
tp1140
Rp1141
(I3
S'|'
p1142
NNNI136
I1
I0
tp1143
bS'https://www.washingtonpost.com/news/powerpost/wp/2016/09/20/heres-some-perspective-on-the-current-spate-of-confusing-presidential-polls/'
p1144
tp1145
Rp1146
(lp1147
S'http://www.foxnews.com/politics/interactive/2016/09/15/fox-news-poll-sept-15-2016/'
p1148
asg1
(g2
(S'S97'
p1149
I0
I1
tp1150
Rp1151
(I3
S'|'
p1152
NNNI97
I1
I0
tp1153
bS'http://news.usc.edu/109339/why-the-usc-dornsifel-a-times-presidential-poll-is-unlike-other-polls/'
p1154
tp1155
Rp1156
(lp1157
S'http://cesrusc.org/election/'
p1158
asg1
(g2
(S'S107'
p1159
I0
I1
tp1160
Rp1161
(I3
S'|'
p1162
NNNI107
I1
I0
tp1163
bS'http://www.investors.com/politics/donald-trump-leads-hillary-clinton-with-more-states-in-play-ibdtipp-poll/'
p1164
tp1165
Rp1166
(lp1167
S'http://www.investors.com/politics/ibd-tipp-presidential-election-poll/'
p1168
aS'http://www.investors.com/politics/ibd-tipp-presidential-election-poll/'
p1169
asg1
(g2
(S'S92'
p1170
I0
I1
tp1171
Rp1172
(I3
S'|'
p1173
NNNI92
I1
I0
tp1174
bS'https://today.yougov.com/news/2016/08/30/clinton-leads-5-voters-label-trump-inconsistent-im/'
p1175
tp1176
Rp1177
(lp1178
S'https://today.yougov.com/news/2016/07/25/yougoveconomist-poll-july-23-24-2016/'
p1179
asg1
(g2
(S'S53'
p1180
I0
I1
tp1181
Rp1182
(I3
S'|'
p1183
NNNI53
I1
I0
tp1184
bS'http://www.investors.com/politics/trump-ibdtipp-poll/'
p1185
tp1186
Rp1187
(lp1188
S'http://www.investors.com/politics/ibd-tipp-presidential-election-poll/'
p1189
aS'http://www.investors.com/politics/ibd-tipp-presidential-election-poll/'
p1190
aS'http://www.investors.com/politics/ibd-tipp-presidential-election-poll/'
p1191
asg1
(g2
(S'S95'
p1192
I0
I1
tp1193
Rp1194
(I3
S'|'
p1195
NNNI95
I1
I0
tp1196
bS'http://www.foxnews.com/politics/2016/11/05/fox-news-poll-clinton-ahead-trump-by-two-points.html'
p1197
tp1198
Rp1199
(lp1200
S'http://www.foxnews.com/politics/interactive/2016/11/04/fox-news-poll-results-11416/'
p1201
asg1
(g2
(S'S110'
p1202
I0
I1
tp1203
Rp1204
(I3
S'|'
p1205
NNNI110
I1
I0
tp1206
bS'http://www.bloomberg.com/news/articles/2016-10-20/treasuries-volatility-nears-two-year-low-before-u-s-election'
p1207
tp1208
Rp1209
(lp1210
S'http://www.bloomberg.com/politics/articles/2016-10-19/national-poll'
p1211
asg1
(g2
(S'S95'
p1212
I0
I1
tp1213
Rp1214
(I3
S'|'
p1215
NNNI95
I1
I0
tp1216
bS'http://theweek.com/speedreads/654439/clinton-leads-by-5-points-after-second-presidential-debate'
p1217
tp1218
Rp1219
(lp1220
S'https://morningconsult.com/2016/09/25/trump-edges-clinton-ahead-first-debate/'
p1221
asg1
(g2
(S'S114'
p1222
I0
I1
tp1223
Rp1224
(I3
S'|'
p1225
NNNI114
I1
I0
tp1226
bS'http://heavy.com/news/2016/10/hillary-clinton-email-trump-polls-2016-presidential-hurt-leading-james-comey-letter/'
p1227
tp1228
Rp1229
(lp1230
S'http://www.politico.com/story/2016/10/clinton-emails-comey-poll-politico-morning-consult-230519'
p1231
asg1
(g2
(S'S47'
p1232
I0
I1
tp1233
Rp1234
(I3
S'|'
p1235
NNNI47
I1
I0
tp1236
bS'http://time.com/4546243/elections-voting-ideas/'
p1237
tp1238
Rp1239
(lp1240
S'http://www.politico.com/story/2016/10/poll-41-percent-of-voters-say-the-election-could-be-stolen-from-trump-229871'
p1241
asg1
(g2
(S'S98'
p1242
I0
I1
tp1243
Rp1244
(I3
S'|'
p1245
NNNI98
I1
I0
tp1246
bS'http://www.washingtontimes.com/news/2016/aug/8/hillary-clinton-leads-donald-trump-13-points-natio/'
p1247
tp1248
Rp1249
(lp1250
S'http://www.monmouth.edu/polling-institute/reports/MonmouthPoll_US_080816/'
p1251
asg1
(g2
(S'S81'
p1252
I0
I1
tp1253
Rp1254
(I3
S'|'
p1255
NNNI81
I1
I0
tp1256
bS'http://www.politico.com/story/2016/08/hillary-clinton-donald-trump-polling-226528'
p1257
tp1258
Rp1259
(lp1260
S'http://i2.cdn.turner.com/cnn/2016/images/08/01/2016.post-dem.convention.pdf'
p1261
asg1
(g2
(S'S93'
p1262
I0
I1
tp1263
Rp1264
(I3
S'|'
p1265
NNNI93
I1
I0
tp1266
bS'http://nymag.com/daily/intelligencer/2016/08/trump-campaign-pushing-theory-of-shy-voters.html'
p1267
tp1268
Rp1269
(lp1270
S'http://www.latimes.com/politics/'
p1271
asg1
(g2
(S'S112'
p1272
I0
I1
tp1273
Rp1274
(I3
S'|'
p1275
NNNI112
I1
I0
tp1276
bS'https://www.washingtonpost.com/news/the-fix/wp/2016/10/24/gary-johnsons-poll-collapse-is-happening-as-predicted/'
p1277
tp1278
Rp1279
(lp1280
S'http://i2.cdn.turner.com/cnn/2016/images/10/24/cnn.poll.pdf'
p1281
asg1
(g2
(S'S65'
p1282
I0
I1
tp1283
Rp1284
(I3
S'|'
p1285
NNNI65
I1
I0
tp1286
bS'http://time.com/4517160/donald-trump-voter-taxes-civic-duty-poll/'
p1287
tp1288
Rp1289
(lp1290
S'http://i2.cdn.turner.com/cnn/2016/images/10/03/2016.race.pdf'
p1291
asg1
(g2
(S'S112'
p1292
I0
I1
tp1293
Rp1294
(I3
S'|'
p1295
NNNI112
I1
I0
tp1296
bS'http://www.ibtimes.com/latest-presidential-polls-donald-trump-leading-hillary-clinton-ahead-swing-states-2435532'
p1297
tp1298
Rp1299
(lp1300
S'http://www.investors.com/politics/ibd-tipp-presidential-election-poll/'
p1301
aS'http://www.rasmussenreports.com/public_content/politics/elections/election_2016/white_house_watch_oct21'
p1302
asg1
(g2
(S'S98'
p1303
I0
I1
tp1304
Rp1305
(I3
S'|'
p1306
NNNI98
I1
I0
tp1307
bS'http://dailycaller.com/2016/07/31/in-poll-after-poll-trump-leads-clinton-among-independent-voters/'
p1308
tp1309
Rp1310
(lp1311
S'http://www.publicpolicypolling.com/pdf/2015/PPP_Release_National_7302016.pdf'
p1312
asg1
(g2
(S'S120'
p1313
I0
I1
tp1314
Rp1315
(I3
S'|'
p1316
NNNI120
I1
I0
tp1317
bS'https://mic.com/articles/153127/what-are-the-chances-donald-trump-will-win-the-2016-election-here-s-what-the-numbers-say'
p1318
tp1319
Rp1320
(lp1321
S'http://www.nbcnews.com/politics/2016-election/poll-clinton-opens-double-digit-lead-over-trump-n625676'
p1322
asg1
(g2
(S'S88'
p1323
I0
I1
tp1324
Rp1325
(I3
S'|'
p1326
NNNI88
I1
I0
tp1327
bS'http://www.thedailybeast.com/cheats/2016/11/07/clinton-leads-all-pre-election-polls.html'
p1328
tp1329
Rp1330
(lp1331
S'https://www.monmouth.edu/polling-institute/reports/MonmouthPoll_US_110716/'
p1332
asg1
(g2
(S'S84'
p1333
I0
I1
tp1334
Rp1335
(I3
S'|'
p1336
NNNI84
I1
I0
tp1337
bS'http://www.people-press.org/2016/08/26/opinions-on-gun-policy-and-the-2016-campaign/'
p1338
tp1339
Rp1340
(lp1341
S'http://www.people-press.org/2016/10/27/as-election-nears-voters-divided-over-democracy-and-respect/'
p1342
asg1
(g2
(S'S107'
p1343
I0
I1
tp1344
Rp1345
(I3
S'|'
p1346
NNNI107
I1
I0
tp1347
bS'http://nymag.com/daily/intelligencer/2016/09/clinton-gains-4-points-on-trump-in-first-post-debate-poll.html'
p1348
tp1349
Rp1350
(lp1351
S'https://morningconsult.com/wp-content/uploads/2016/09/160915_crosstabs_trend_v1_LIKELYVOTERS_AD.pdf'
p1352
asg1
(g2
(S'S88'
p1353
I0
I1
tp1354
Rp1355
(I3
S'|'
p1356
NNNI88
I1
I0
tp1357
bS'http://www.newsweek.com/polls-presidential-election-trump-clinton-november-7-2016-517857'
p1358
tp1359
Rp1360
(lp1361
S'http://www.cbsnews.com/news/cbs-news-poll-state-of-the-race-the-day-before-election-day/'
p1362
aS'http://www.investors.com/politics/ibd-tipp-presidential-election-poll/'
p1363
asg1
(g2
(S'S78'
p1364
I0
I1
tp1365
Rp1366
(I3
S'|'
p1367
NNNI78
I1
I0
tp1368
bS'http://www.thefiscaltimes.com/2016/09/06/Clinton-Leads-Trump-Texas-Wait-Minute'
p1369
tp1370
Rp1371
(lp1372
S'https://morningconsult.com/2016/09/04/trumps-immigration-stance-isnt-hurting/'
p1373
asg1
(g2
(S'S110'
p1374
I0
I1
tp1375
Rp1376
(I3
S'|'
p1377
NNNI110
I1
I0
tp1378
bS'http://www.cnbc.com/2016/10/03/donald-trump-to-favor-in-polls-in-mid-october-market-drop-mcclellan-report.html'
p1379
tp1380
Rp1381
(lp1382
S'http://www.foxnews.com/politics/interactive/2016/09/30/full-fox-news-poll-results-30/'
p1383
asg1
(g2
(S'S82'
p1384
I0
I1
tp1385
Rp1386
(I3
S'|'
p1387
NNNI82
I1
I0
tp1388
bS'http://www.cnbc.com/2016/11/01/why-democratic-panic-may-just-be-wasted-energy.html'
p1389
tp1390
Rp1391
(lp1392
S'http://www.nbcnews.com/storyline/data-points/poll-clinton-maintains-national-lead-over-trump-despite-fbi-letter-n675771'
p1393
asg1
(g2
(S'S89'
p1394
I0
I1
tp1395
Rp1396
(I3
S'|'
p1397
NNNI89
I1
I0
tp1398
bS'http://www.investors.com/politics/ibd-tipp-tracking-poll-most-accurate-presidential-poll/'
p1399
tp1400
Rp1401
(lp1402
S'http://www.investors.com/politics/ibd-tipp-presidential-election-poll/'
p1403
aS'http://www.investors.com/politics/ibd-tipp-presidential-election-poll/'
p1404
asg1
(g2
(S'S106'
p1405
I0
I1
tp1406
Rp1407
(I3
S'|'
p1408
NNNI106
I1
I0
tp1409
bS'http://www.investors.com/politics/clinton-extends-lead-over-trump-to-3-points-and-99-million-ibdtipp-poll/'
p1410
tp1411
Rp1412
(lp1413
S'http://www.investors.com/politics/ibd-tipp-presidential-election-poll/'
p1414
aS'http://www.investors.com/politics/ibd-tipp-presidential-election-poll/'
p1415
aS'http://www.investors.com/politics/ibd-tipp-presidential-election-poll/'
p1416
asg1
(g2
(S'S82'
p1417
I0
I1
tp1418
Rp1419
(I3
S'|'
p1420
NNNI82
I1
I0
tp1421
bS'http://www.mcclatchydc.com/news/politics-government/election/article110192542.html'
p1422
tp1423
Rp1424
(lp1425
S'http://i2.cdn.turner.com/cnn/2016/images/10/24/cnn.poll.pdf'
p1426
asg1
(g2
(S'S108'
p1427
I0
I1
tp1428
Rp1429
(I3
S'|'
p1430
NNNI108
I1
I0
tp1431
bS'http://abcnews.go.com/Politics/shift-electorates-makeup-tightens-presidential-contest-poll/story?id=43142198'
p1432
tp1433
Rp1434
(lp1435
S'http://www.langerresearch.com/wp-content/uploads/1184a72016ElectionTrackingNo7.pdf'
p1436
asg1
(g2
(S'S100'
p1437
I0
I1
tp1438
Rp1439
(I3
S'|'
p1440
NNNI100
I1
I0
tp1441
bS'http://www.nydailynews.com/news/politics/clinton-leads-3-points-poll-fbi-bombshell-article-1.2852213'
p1442
tp1443
Rp1444
(lp1445
S'http://www.politico.com/story/2016/10/clinton-emails-comey-poll-politico-morning-consult-230519'
p1446
asg1
(g2
(S'S74'
p1447
I0
I1
tp1448
Rp1449
(I3
S'|'
p1450
NNNI74
I1
I0
tp1451
bS'http://talkingpointsmemo.com/polltracker/clinton-leads-6-pts-monmouth-poll'
p1452
tp1453
Rp1454
(lp1455
S'https://www.monmouth.edu/polling-institute/reports/MonmouthPoll_US_110716/'
p1456
aS'http://www.foxnews.com/politics/2016/11/07/fox-news-poll-results-11716.html'
p1457
aS'http://www.cbsnews.com/news/cbs-news-poll-state-of-the-race-the-day-before-election-day/'
p1458
aS'https://www.monmouth.edu/polling-institute/reports/MonmouthPoll_US_101716/'
p1459
asg1
(g2
(S'S115'
p1460
I0
I1
tp1461
Rp1462
(I3
S'|'
p1463
NNNI115
I1
I0
tp1464
bS'http://www.ibtimes.com/latest-presidential-polls-how-much-does-black-vote-mean-hillary-clinton-donald-trump-2424006'
p1465
tp1466
Rp1467
(lp1468
S'http://www.langerresearch.com/wp-content/uploads/1181a12016Election.pdf'
p1469
asg1
(g2
(S'S125'
p1470
I0
I1
tp1471
Rp1472
(I3
S'|'
p1473
NNNI125
I1
I0
tp1474
bS'http://www.bloomberg.com/politics/articles/2016-08-09/u-s-election-wrap-gop-trump-quandary-intensifies-as-map-shifts-iro133j2'
p1475
tp1476
Rp1477
(lp1478
S'http://www.nbcnews.com/politics/2016-election/poll-clinton-opens-double-digit-lead-over-trump-n625676'
p1479
asg1
(g2
(S'S121'
p1480
I0
I1
tp1481
Rp1482
(I3
S'|'
p1483
NNNI121
I1
I0
tp1484
bS'http://www.bloomberg.com/politics/articles/2016-09-06/polls-tighten-but-hillary-clinton-retains-edge-in-electoral-college'
p1485
tp1486
Rp1487
(lp1488
S'http://i2.cdn.turner.com/cnn/2016/images/09/05/rel13a.-.2016.post-labor.day.pdf'
p1489
aS'https://s3.amazonaws.com/redoakstrategic-gcs/RedOakStrategic_NationalGCSSurvey_Sept62016.pdf'
p1490
asg1
(g2
(S'S72'
p1491
I0
I1
tp1492
Rp1493
(I3
S'|'
p1494
NNNI72
I1
I0
tp1495
bS'http://www.cbc.ca/news/politics/grenier-uselection-trump-gains-1.3749930'
p1496
tp1497
Rp1498
(lp1499
S'http://i2.cdn.turner.com/cnn/2016/images/09/05/rel13a.-.2016.post-labor.day.pdf'
p1500
asg1
(g2
(S'S73'
p1501
I0
I1
tp1502
Rp1503
(I3
S'|'
p1504
NNNI73
I1
I0
tp1505
bS'http://www.investors.com/politics/editorials/ibdtipp-poll-nails-it-again/'
p1506
tp1507
Rp1508
(lp1509
S'http://www.investors.com/politics/ibd-tipp-presidential-election-poll/'
p1510
aS'http://www.investors.com/politics/ibd-tipp-presidential-election-poll/'
p1511
asg1
(g2
(S'S107'
p1512
I0
I1
tp1513
Rp1514
(I3
S'|'
p1515
NNNI107
I1
I0
tp1516
bS'http://thehill.com/blogs/ballot-box/presidential-races/299016-poll-clinton-retakes-national-lead-from-trump'
p1517
tp1518
Rp1519
(lp1520
S'https://s3.amazonaws.com/redoakstrategic-gcs/RedOakStrategic_NationalGCSSurvey_Oct32016.pdf'
p1521
asg1
(g2
(S'S111'
p1522
I0
I1
tp1523
Rp1524
(I3
S'|'
p1525
NNNI111
I1
I0
tp1526
bS'https://www.washingtonpost.com/graphics/politics/2016-election/who-is-winning-the-presidential-election-so-far/'
p1527
tp1528
Rp1529
(lp1530
S'https://www.washingtonpost.com/news/the-fix/wp/2016/11/07/post-abc-tracking-poll-clinton-47-trump-43-on-election-eve/'
p1531
asg1
(g2
(S'S104'
p1532
I0
I1
tp1533
Rp1534
(I3
S'|'
p1535
NNNI104
I1
I0
tp1536
bS'https://www.washingtonpost.com/news/the-fix/wp/2016/10/29/clinton-47-trump-45-in-post-abc-tracking-poll/'
p1537
tp1538
Rp1539
(lp1540
S'http://www.investors.com/politics/ibd-tipp-presidential-election-poll/'
p1541
aS'http://fm.cnbc.com/applications/cnbc.com/resources/editorialfiles/2016/10/27/survey.pdf'
p1542
aS'http://ap-gfkpoll.com/main/wp-content/uploads/2016/10/October-2016-AP-GfK-Poll-Topline_Campaign.pdf'
p1543
asg1
(g2
(S'S114'
p1544
I0
I1
tp1545
Rp1546
(I3
S'|'
p1547
NNNI114
I1
I0
tp1548
bS'https://mic.com/articles/158494/donald-trump-vs-hillary-clinton-latest-polls-and-predictions-for-the-2016-election'
p1549
tp1550
Rp1551
(lp1552
S'http://www.investors.com/politics/ibd-tipp-presidential-election-poll/'
p1553
aS'http://cesrusc.org/election/'
p1554
asg1
(g2
(S'S97'
p1555
I0
I1
tp1556
Rp1557
(I3
S'|'
p1558
NNNI97
I1
I0
tp1559
bS'http://www.forbes.com/sites/alexknapp/2016/11/04/what-you-need-to-know-about-2016-election-polls/'
p1560
tp1561
Rp1562
(lp1563
S'https://www.washingtonpost.com/news/the-fix/wp/2016/11/04/clinton-up-47-44-in-post-abc-tracking-poll-despite-trumps-9-point-edge-on-dealing-with-corruption/'
p1564
asg1
(g2
(S'S80'
p1565
I0
I1
tp1566
Rp1567
(I3
S'|'
p1568
NNNI80
I1
I0
tp1569
bS'http://www.newyorker.com/news/john-cassidy/why-a-brexit-shocker-is-unlikely-here'
p1570
tp1571
Rp1572
(lp1573
S'http://www.foxnews.com/politics/interactive/2016/10/26/fox-news-poll-october-26-2016/'
p1574
asg1
(g2
(S'S82'
p1575
I0
I1
tp1576
Rp1577
(I3
S'|'
p1578
NNNI82
I1
I0
tp1579
bS'http://money.cnn.com/2016/08/14/news/economy/donald-trump-hillary-clinton-economy/'
p1580
tp1581
Rp1582
(lp1583
S'http://i2.cdn.turner.com/cnn/2016/images/08/01/2016.post-dem.convention.pdf'
p1584
aS'https://assets.bwbx.io/documents/users/iqjWHBFdfxIU/rAjnCYJjgvBw/v0'
p1585
aS'http://www.foxnews.com/politics/interactive/2016/08/03/fox-news-poll-aug-3-2016/'
p1586
asg1
(g2
(S'S89'
p1587
I0
I1
tp1588
Rp1589
(I3
S'|'
p1590
NNNI89
I1
I0
tp1591
bS'http://www.cnn.com/2016/08/01/politics/trump-vs-clinton-presidential-polls-election-2016/'
p1592
tp1593
Rp1594
(lp1595
S'http://i2.cdn.turner.com/cnn/2016/images/08/01/2016.post-dem.convention.pdf'
p1596
aS'http://i2.cdn.turner.com/cnn/2016/images/08/01/2016.post-dem.convention.pdf'
p1597
asg1
(g2
(S'S76'
p1598
I0
I1
tp1599
Rp1600
(I3
S'|'
p1601
NNNI76
I1
I0
tp1602
bS'http://dailycaller.com/2016/09/25/trump-leads-clinton-ahead-of-first-debate/'
p1603
tp1604
Rp1605
(lp1606
S'https://morningconsult.com/2016/09/25/trump-edges-clinton-ahead-first-debate/'
p1607
asg1
(g2
(S'S110'
p1608
I0
I1
tp1609
Rp1610
(I3
S'|'
p1611
NNNI110
I1
I0
tp1612
bS'http://dailycaller.com/2016/08/01/5-percent-of-americans-would-vote-for-harambe-the-dead-gorilla-as-president/'
p1613
tp1614
Rp1615
(lp1616
S'http://www.publicpolicypolling.com/pdf/2015/PPP_Release_National_7302016.pdf'
p1617
asg1
(g2
(S'S94'
p1618
I0
I1
tp1619
Rp1620
(I3
S'|'
p1621
NNNI94
I1
I0
tp1622
bS'http://abc27.com/2016/11/01/trump-leads-clinton-by-1-point-in-new-poll-as-enthusiasm-declines/'
p1623
tp1624
Rp1625
(lp1626
S'http://www.langerresearch.com/wp-content/uploads/1184a102016ElectionTrackingNo10.pdf'
p1627
asg1
(g2
(S'S72'
p1628
I0
I1
tp1629
Rp1630
(I3
S'|'
p1631
NNNI72
I1
I0
tp1632
bS'https://today.yougov.com/news/2016/08/24/donald-trump-makes-some-ground/'
p1633
tp1634
Rp1635
(lp1636
S'https://today.yougov.com/news/2016/07/25/yougoveconomist-poll-july-23-24-2016/'
p1637
asg1
(g2
(S'S49'
p1638
I0
I1
tp1639
Rp1640
(I3
S'|'
p1641
NNNI49
I1
I0
tp1642
bS'http://www.bbc.com/news/election-us-2016-37900080'
p1643
tp1644
Rp1645
(lp1646
S'https://d25d2506sfb94s.cloudfront.net/cumulus_uploads/document/l37rosbwjp/econTabReport_lv.pdf'
p1647
asg1
(g2
(S'S95'
p1648
I0
I1
tp1649
Rp1650
(I3
S'|'
p1651
NNNI95
I1
I0
tp1652
bS'http://hotair.com/archives/2016/09/25/morning-consult-trump-finally-pulls-ahead-clinton-barely/'
p1653
tp1654
Rp1655
(lp1656
S'https://morningconsult.com/2016/09/25/trump-edges-clinton-ahead-first-debate/'
p1657
asg1
(g2
(S'S102'
p1658
I0
I1
tp1659
Rp1660
(I3
S'|'
p1661
NNNI102
I1
I0
tp1662
bS'http://www.nytimes.com/2016/09/08/upshot/how-to-assess-the-polls-as-hillary-clintons-lead-shrinks.html'
p1663
tp1664
Rp1665
(lp1666
S'http://www.monmouth.edu/polling-institute/reports/MonmouthPoll_US_082916/'
p1667
asg1
(g2
(S'S143'
p1668
I0
I1
tp1669
Rp1670
(I3
S'|'
p1671
NNNI143
I1
I0
tp1672
bS'http://www.breitbart.com/2016-presidential-race/2016/08/15/exclusive-pat-caddell-says-breitbartgravis-national-poll-shows-trumps-opportunities/'
p1673
tp1674
Rp1675
(lp1676
S'http://www.breitbart.com/2016-presidential-race/2016/08/14/breitbartgravis-poll-hillary-clinton-leads-donald-trump-42-to-37/'
p1677
asg1
(g2
(S'S84'
p1678
I0
I1
tp1679
Rp1680
(I3
S'|'
p1681
NNNI84
I1
I0
tp1682
bS'http://www.nytimes.com/interactive/2016/08/16/us/elections/gary-johnson-debates.html'
p1683
tp1684
Rp1685
(lp1686
S'http://www.foxnews.com/politics/interactive/2016/09/15/fox-news-poll-sept-15-2016/'
p1687
aS'https://www.washingtonpost.com/politics/clinton-holds-lead-over-trump-in-new-poll-but-warning-signs-emerge/2016/09/10/800dee0c-76c8-11e6-b786-19d0cb1ed06c_story.html?postshare=531473592721373&tid=ss_tw'
p1688
aS'http://i2.cdn.turner.com/cnn/2016/images/09/05/rel13a.-.2016.post-labor.day.pdf'
p1689
asg1
(g2
(S'S132'
p1690
I0
I1
tp1691
Rp1692
(I3
S'|'
p1693
NNNI132
I1
I0
tp1694
bS'http://www.salon.com/2016/10/20/presidential-debate-roundup-why-donald-trump-lost-and-why-hillary-clinton-didnt-need-to-win_partner/'
p1695
tp1696
Rp1697
(lp1698
S'http://www.bloomberg.com/politics/articles/2016-10-19/national-poll'
p1699
aS'http://www.nbcnews.com/politics/first-read/clinton-holds-11-point-national-lead-over-trump-nbc-wsj-n666986'
p1700
asg1
(g2
(S'S74'
p1701
I0
I1
tp1702
Rp1703
(I3
S'|'
p1704
NNNI74
I1
I0
tp1705
bS'http://www.politico.com/story/2016/08/clintons-third-party-headache-226700'
p1706
tp1707
Rp1708
(lp1709
S'http://www.foxnews.com/politics/interactive/2016/08/03/fox-news-poll-aug-3-2016/'
p1710
aS'http://i2.cdn.turner.com/cnn/2016/images/08/01/2016.post-dem.convention.pdf'
p1711
asg1
(g2
(S'S118'
p1712
I0
I1
tp1713
Rp1714
(I3
S'|'
p1715
NNNI118
I1
I0
tp1716
bS'http://www.bloomberg.com/politics/articles/2016-09-15/clinton-moves-to-fix-millennial-problem-with-assist-from-sanders'
p1717
tp1718
Rp1719
(lp1720
S'https://www.qu.edu/images/polling/us/us09142016_U27xtpb.pdf'
p1721
asg1
(g2
(S'S137'
p1722
I0
I1
tp1723
Rp1724
(I3
S'|'
p1725
NNNI137
I1
I0
tp1726
bS'http://townhall.com/tipsheet/christinerousselle/2016/08/01/harambe-the-gorilla-polling-at-five-percent-against-clinton-and-trump-n2200614'
p1727
tp1728
Rp1729
(lp1730
S'http://www.publicpolicypolling.com/pdf/2015/PPP_Release_National_7302016.pdf'
p1731
asg1
(g2
(S'S83'
p1732
I0
I1
tp1733
Rp1734
(I3
S'|'
p1735
NNNI83
I1
I0
tp1736
bS'http://nymag.com/daily/intelligencer/2016/10/is-the-presidential-election-over.html'
p1737
tp1738
Rp1739
(lp1740
S'http://www.rasmussenreports.com/public_content/politics/elections/election_2016/white_house_watch_oct14'
p1741
asg1
(g2
(S'S94'
p1742
I0
I1
tp1743
Rp1744
(I3
S'|'
p1745
NNNI94
I1
I0
tp1746
bS'http://www.msnbc.com/rachel-maddow-show/despite-latest-polls-donald-trump-still-says-hes-ahead'
p1747
tp1748
Rp1749
(lp1750
S'http://www.cbsnews.com/news/cbs-poll-clintons-lead-over-trump-widens-with-three-weeks-to-go/'
p1751
aS'https://www.monmouth.edu/polling-institute/reports/MonmouthPoll_US_101716/'
p1752
asg1
(g2
(S'S96'
p1753
I0
I1
tp1754
Rp1755
(I3
S'|'
p1756
NNNI96
I1
I0
tp1757
bS'http://www.thefiscaltimes.com/2016/11/01/Trump-Pulling-Ahead-Here-s-What-Polls-Are-Really-Saying'
p1758
tp1759
Rp1760
(lp1761
S'http://www.nbcnews.com/storyline/data-points/poll-clinton-maintains-national-lead-over-trump-despite-fbi-letter-n675771'
p1762
asg1
(g2
(S'S86'
p1763
I0
I1
tp1764
Rp1765
(I3
S'|'
p1766
NNNI86
I1
I0
tp1767
bS'http://hotair.com/archives/2016/10/19/oh-ibd-national-poll-trump-ahead-one-point-4140/'
p1768
tp1769
Rp1770
(lp1771
S'http://www.investors.com/politics/trump-leads-clinton-by-one-point-going-into-debate-in-ibdtipp-tracking-poll/'
p1772
aS'http://www.rasmussenreports.com/public_content/politics/elections/election_2016/white_house_watch_oct19'
p1773
aS'http://www.prri.org/research/prri-brookings-october-19-2016-presidential-election-horserace-clinton-trump/'
p1774
asg1
(g2
(S'S116'
p1775
I0
I1
tp1776
Rp1777
(I3
S'|'
p1778
NNNI116
I1
I0
tp1779
bS'http://www.bloomberg.com/politics/articles/2016-11-03/clinton-has-narrow-edge-on-trump-with-five-days-until-election'
p1780
tp1781
Rp1782
(lp1783
S'http://www.cbsnews.com/news/five-days-to-go-the-presidential-race-tightens-cbsnyt-poll/'
p1784
asg1
(g2
(S'S91'
p1785
I0
I1
tp1786
Rp1787
(I3
S'|'
p1788
NNNI91
I1
I0
tp1789
bS'http://www.politico.com/story/2016/09/donald-trump-hillary-clinton-post-debate-polls-228984'
p1790
tp1791
Rp1792
(lp1793
S'https://www.qu.edu/news-and-events/quinnipiac-university-poll/national/release-detail?ReleaseID=2383'
p1794
aS'http://www.monmouth.edu/polling-institute/reports/MonmouthPoll_US_092616/'
p1795
aS'https://www.scribd.com/document/324821200/16804-NBCWSJ-September-Poll-9-21-Release?secret_password=gKkeD7pKqo5rYoSPNmfU'
p1796
asg1
(g2
(S'S88'
p1797
I0
I1
tp1798
Rp1799
(I3
S'|'
p1800
NNNI88
I1
I0
tp1801
bS'http://www.cnn.com/2016/09/26/politics/national-polls-hillary-clinton-donald-trump-tied/'
p1802
tp1803
Rp1804
(lp1805
S'https://www.qu.edu/news-and-events/quinnipiac-university-poll/national/release-detail?ReleaseID=2383'
p1806
aS'http://www.monmouth.edu/polling-institute/reports/MonmouthPoll_US_092616/'
p1807
asg1
(g2
(S'S85'
p1808
I0
I1
tp1809
Rp1810
(I3
S'|'
p1811
NNNI85
I1
I0
tp1812
bS'http://fivethirtyeight.com/features/election-update-how-big-is-hillary-clintons-lead/'
p1813
tp1814
Rp1815
(lp1816
S'http://www.upi.com/Top_News/US/2016/10/03/UPICVoter-poll-Donald-Trump-leads-Hillary-Clinton-by-25-points/9051475504225/?spt=sec&or=tn'
p1817
aS'http://www.latimes.com/politics/'
p1818
asg1
(g2
(S'S113'
p1819
I0
I1
tp1820
Rp1821
(I3
S'|'
p1822
NNNI113
I1
I0
tp1823
bS'http://www.bloomberg.com/politics/articles/2016-10-17/u-s-election-wrap-clinton-widens-polling-lead-expanding-map'
p1824
tp1825
Rp1826
(lp1827
S'https://www.monmouth.edu/polling-institute/reports/MonmouthPoll_US_101716/'
p1828
asg1
(g2
(S'S103'
p1829
I0
I1
tp1830
Rp1831
(I3
S'|'
p1832
NNNI103
I1
I0
tp1833
bS'http://www.birminghamtimes.com/2016/08/hillary-clinton-leads-donald-trump-by-double-digits-in-new-poll/'
p1834
tp1835
Rp1836
(lp1837
S'http://www.monmouth.edu/polling-institute/reports/MonmouthPoll_US_080816/'
p1838
asg1
(g2
(S'S138'
p1839
I0
I1
tp1840
Rp1841
(I3
S'|'
p1842
NNNI138
I1
I0
tp1843
bS'http://www.latimes.com/nation/politics/trailguide/la-na-trailguide-updates-last-flurry-of-polls-provides-data-on-1478436452-htmlstory.html'
p1844
tp1845
Rp1846
(lp1847
S'https://morningconsult.com/2016/11/06/final-2016-poll-morning-consult/'
p1848
asg1
(g2
(S'S114'
p1849
I0
I1
tp1850
Rp1851
(I3
S'|'
p1852
NNNI114
I1
I0
tp1853
bS'http://www.npr.org/2016/10/23/498890836/poll-white-evangelicals-have-warmed-to-politicians-who-commit-immoral-acts'
p1854
tp1855
Rp1856
(lp1857
S'http://www.prri.org/research/prri-brookings-october-19-2016-presidential-election-horserace-clinton-trump/'
p1858
asg1
(g2
(S'S146'
p1859
I0
I1
tp1860
Rp1861
(I3
S'|'
p1862
NNNI146
I1
I0
tp1863
bS'https://www.washingtonpost.com/news/the-fix/wp/2016/11/02/here-corey-lewandowski-the-data-that-rebuts-your-ridiculous-argument-about-black-voters/'
p1864
tp1865
Rp1866
(lp1867
S'http://cesrusc.org/election/'
p1868
asg1
(g2
(S'S82'
p1869
I0
I1
tp1870
Rp1871
(I3
S'|'
p1872
NNNI82
I1
I0
tp1873
bS'http://hotair.com/archives/2016/10/25/mike-pence-republican-voters-time-come-home/'
p1874
tp1875
Rp1876
(lp1877
S'https://www.qu.edu/images/polling/us/us10192016_U29frgv.pdf'
p1878
aS'http://www.rasmussenreports.com/public_content/politics/elections/election_2016/white_house_watch_oct25'
p1879
asg1
(g2
(S'S112'
p1880
I0
I1
tp1881
Rp1882
(I3
S'|'
p1883
NNNI112
I1
I0
tp1884
bS'http://www.bloomberg.com/politics/trackers/2016-11-06/clinton-leads-trump-48-to-43-abc-news-washington-post-poll'
p1885
tp1886
Rp1887
(lp1888
S'http://abcnews.go.com/Politics/qualifications-temperament-aid-clinton-2016-campaigns-closing-days/story?id=43327300'
p1889
asg1
(g2
(S'S134'
p1890
I0
I1
tp1891
Rp1892
(I3
S'|'
p1893
NNNI134
I1
I0
tp1894
bS'http://www.dailykos.com/story/2016/11/7/1592391/-Daily-Kos-Elections-final-presidential-forecast-Clinton-323-electoral-votes-Trump-215'
p1895
tp1896
Rp1897
(lp1898
S'http://www.nbcnews.com/storyline/data-points/poll-clinton-maintains-national-lead-over-trump-despite-fbi-letter-n675771'
p1899
asg1
(g2
(S'S89'
p1900
I0
I1
tp1901
Rp1902
(I3
S'|'
p1903
NNNI89
I1
I0
tp1904
bS'http://www.newyorker.com/news/john-cassidy/the-election-is-still-hillary-clintons-to-lose'
p1905
tp1906
Rp1907
(lp1908
S'http://i2.cdn.turner.com/cnn/2016/images/09/05/rel13a.-.2016.post-labor.day.pdf'
p1909
asg1
(g2
(S'S80'
p1910
I0
I1
tp1911
Rp1912
(I3
S'|'
p1913
NNNI80
I1
I0
tp1914
bS'http://fivethirtyeight.com/features/trump-is-in-fourth-place-among-black-voters/'
p1915
tp1916
Rp1917
(lp1918
S'http://www.foxnews.com/politics/interactive/2016/08/03/fox-news-poll-aug-3-2016/'
p1919
asg1
(g2
(S'S80'
p1920
I0
I1
tp1921
Rp1922
(I3
S'|'
p1923
NNNI80
I1
I0
tp1924
bS'http://www.latimes.com/politics/la-na-pol-presidential-polls-20161102-story.html'
p1925
tp1926
Rp1927
(lp1928
S'http://www.latimes.com/politics/'
p1929
asg1
(g2
(S'S86'
p1930
I0
I1
tp1931
Rp1932
(I3
S'|'
p1933
NNNI86
I1
I0
tp1934
bS'http://www.latimes.com/politics/la-na-pol-polling-differences-20160809-snap-story.html'
p1935
tp1936
Rp1937
(lp1938
S'http://www.latimes.com/politics/'
p1939
asg1
(g2
(S'S111'
p1940
I0
I1
tp1941
Rp1942
(I3
S'|'
p1943
NNNI111
I1
I0
tp1944
bS'http://www.cbsnews.com/news/poll-donald-trump-leads-hillary-clinton-in-arizona-texas-but-georgia-race-is-tight/'
p1945
tp1946
Rp1947
(lp1948
S'http://www.cbsnews.com/news/five-days-to-go-the-presidential-race-tightens-cbsnyt-poll/'
p1949
asg1
(g2
(S'S116'
p1950
I0
I1
tp1951
Rp1952
(I3
S'|'
p1953
NNNI116
I1
I0
tp1954
bS'https://mic.com/articles/158686/2016-presidential-election-updates-on-polls-swing-states-and-nate-silver-projections'
p1955
tp1956
Rp1957
(lp1958
S'http://www.nbcnews.com/storyline/data-points/poll-eve-election-day-clinton-maintains-her-edge-over-trump-n678816'
p1959
aS'http://cesrusc.org/election/'
p1960
asg1
(g2
(S'S72'
p1961
I0
I1
tp1962
Rp1963
(I3
S'|'
p1964
NNNI72
I1
I0
tp1965
bS'http://theweek.com/speedreads/651707/clinton-gets-postdebate-boost-polls'
p1966
tp1967
Rp1968
(lp1969
S'https://morningconsult.com/wp-content/uploads/2016/09/160915_crosstabs_trend_v1_LIKELYVOTERS_AD.pdf'
p1970
asg1
(g2
(S'S103'
p1971
I0
I1
tp1972
Rp1973
(I3
S'|'
p1974
NNNI103
I1
I0
tp1975
bS'https://www.bloomberg.com/view/articles/2016-11-07/obama-would-thump-trump-romney-would-conquer-clinton'
p1976
tp1977
Rp1978
(lp1979
S'http://www.bloomberg.com/politics/articles/2016-11-07/national-poll'
p1980
asg1
(g2
(S'S99'
p1981
I0
I1
tp1982
Rp1983
(I3
S'|'
p1984
NNNI99
I1
I0
tp1985
bS'http://www.politico.com/blogs/5-political-numbers-to-watch/2016/10/hillary-clinton-fbi-polls-230481'
p1986
tp1987
Rp1988
(lp1989
S'http://www.people-press.org/2016/10/27/as-election-nears-voters-divided-over-democracy-and-respect/'
p1990
aS'http://i2.cdn.turner.com/cnn/2016/images/10/24/cnn.poll.pdf'
p1991
asg1
(g2
(S'S134'
p1992
I0
I1
tp1993
Rp1994
(I3
S'|'
p1995
NNNI134
I1
I0
tp1996
bS'http://www.breitbart.com/2016-presidential-race/2016/09/01/rasmussen-trump-leads-hillary-clinton-loses-post-convention-polling-bounce/'
p1997
tp1998
Rp1999
(lp2000
S'http://www.rasmussenreports.com/public_content/politics/elections/election_2016/white_house_watch'
p2001
asg1
(g2
(S'S107'
p2002
I0
I1
tp2003
Rp2004
(I3
S'|'
p2005
NNNI107
I1
I0
tp2006
bS'http://www.people-press.org/2016/10/27/2-factors-underlying-voter-preferences-positive-and-negative-voting/'
p2007
tp2008
Rp2009
(lp2010
S'http://www.people-press.org/2016/10/27/as-election-nears-voters-divided-over-democracy-and-respect/'
p2011
aS'http://www.people-press.org/2016/10/27/as-election-nears-voters-divided-over-democracy-and-respect/'
p2012
aS'http://www.people-press.org/2016/10/27/as-election-nears-voters-divided-over-democracy-and-respect/'
p2013
asg1
(g2
(S'S79'
p2014
I0
I1
tp2015
Rp2016
(I3
S'|'
p2017
NNNI79
I1
I0
tp2018
bS'http://nymag.com/daily/intelligencer/2016/08/dont-count-out-trump-just-yet.html'
p2019
tp2020
Rp2021
(lp2022
S'https://www.qu.edu/images/polling/us/us08252016_U88mxwn.pdf'
p2023
aS'https://d25d2506sfb94s.cloudfront.net/cumulus_uploads/document/fs009vw1xv/econTabReport.pdf'
p2024
asg1
(g2
(S'S115'
p2025
I0
I1
tp2026
Rp2027
(I3
S'|'
p2028
NNNI115
I1
I0
tp2029
bS'http://www.usatoday.com/story/news/politics/onpolitics/2016/08/08/monmouth-poll-clinton-gains-trump-drops/88399152/'
p2030
tp2031
Rp2032
(lp2033
S'http://www.monmouth.edu/polling-institute/reports/MonmouthPoll_US_080816/'
p2034
asg1
(g2
(S'S122'
p2035
I0
I1
tp2036
Rp2037
(I3
S'|'
p2038
NNNI122
I1
I0
tp2039
bS'http://www.slate.com/blogs/the_slatest/2016/10/16/latest_polls_show_hillary_clinton_with_clear_lead_over_donald_trump.html'
p2040
tp2041
Rp2042
(lp2043
S'http://www.nbcnews.com/politics/first-read/clinton-holds-11-point-national-lead-over-trump-nbc-wsj-n666986'
p2044
asg1
(g2
(S'S72'
p2045
I0
I1
tp2046
Rp2047
(I3
S'|'
p2048
NNNI72
I1
I0
tp2049
bS'http://www.nytimes.com/2016/11/06/us/politics/presidential-election.html'
p2050
tp2051
Rp2052
(lp2053
S'http://www.nbcnews.com/storyline/2016-election-day/final-nbc-wsj-poll-clinton-holds-four-point-national-lead-n678611'
p2054
aS'http://www.nbcnews.com/storyline/2016-election-day/final-nbc-wsj-poll-clinton-holds-four-point-national-lead-n678611'
p2055
aS'http://www.nbcnews.com/storyline/2016-election-day/final-nbc-wsj-poll-clinton-holds-four-point-national-lead-n678611'
p2056
asg1
(g2
(S'S112'
p2057
I0
I1
tp2058
Rp2059
(I3
S'|'
p2060
NNNI112
I1
I0
tp2061
bS'http://www.nbcnews.com/storyline/data-points/poll-clinton-support-spikes-following-democratic-convention-n621071'
p2062
tp2063
Rp2064
(lp2065
S'http://www.nbcnews.com/politics/2016-election/poll-no-post-convention-bounce-donald-trump-n616426'
p2066
asg1
(g2
(S'S102'
p2067
I0
I1
tp2068
Rp2069
(I3
S'|'
p2070
NNNI102
I1
I0
tp2071
bS'http://thehill.com/blogs/ballot-box/presidential-races/297694-poll-trump-has-1-point-lead-over-clinton'
p2072
tp2073
Rp2074
(lp2075
S'https://morningconsult.com/2016/09/25/trump-edges-clinton-ahead-first-debate/'
p2076
asg1
(g2
(S'S124'
p2077
I0
I1
tp2078
Rp2079
(I3
S'|'
p2080
NNNI124
I1
I0
tp2081
bS'http://www.pewhispanic.org/2016/10/11/democrats-maintain-edge-as-party-more-concerned-for-latinos-but-views-similar-to-2012/'
p2082
tp2083
Rp2084
(lp2085
S'http://www.people-press.org/2016/08/18/1-voters-general-election-preferences/'
p2086
asg1
(g2
(S'S91'
p2087
I0
I1
tp2088
Rp2089
(I3
S'|'
p2090
NNNI91
I1
I0
tp2091
bS'http://fivethirtyeight.com/features/election-update-yes-donald-trump-has-a-path-to-victory/'
p2092
tp2093
Rp2094
(lp2095
S'http://www.langerresearch.com/wp-content/uploads/1184a102016ElectionTrackingNo10.pdf'
p2096
aS'http://www.rand.org/pubs/research_reports/RR1792.html'
p2097
asg1
(g2
(S'S121'
p2098
I0
I1
tp2099
Rp2100
(I3
S'|'
p2101
NNNI121
I1
I0
tp2102
bS'http://www.slate.com/articles/news_and_politics/politics/2016/09/terrorism_doesn_t_help_trump_just_look_at_the_polls.html'
p2103
tp2104
Rp2105
(lp2106
S'http://www.foxnews.com/politics/interactive/2015/12/18/fox-news-poll-2016-gop-race-trump-muslim-ban-terrorism-isis/'
p2107
aS'http://www.foxnews.com/politics/interactive/2015/11/20/fox-news-poll-2016-matchups-syrian-refugees/'
p2108
aS'http://www.monmouth.edu/assets/0/32212254770/32212254991/32212254992/32212254994/32212254995/30064771087/568faad2-81ab-4bd0-b373-8577326e76bd.pdf'
p2109
aS'http://www.monmouth.edu/assets/0/32212254770/32212254991/32212254992/32212254994/32212254995/30064771087/568faad2-81ab-4bd0-b373-8577326e76bd.pdf'
p2110
asg1
(g2
(S'S70'
p2111
I0
I1
tp2112
Rp2113
(I3
S'|'
p2114
NNNI70
I1
I0
tp2115
bS'http://www.nytimes.com/interactive/2016/us/elections/senate-polls.html'
p2116
tp2117
Rp2118
(lp2119
S'http://polls.saintleo.edu/wp-content/uploads/2016/09/SLU-September-2016-Poll_Complete-Findings.pdf'
p2120
asg1
(g2
(S'S82'
p2121
I0
I1
tp2122
Rp2123
(I3
S'|'
p2124
NNNI82
I1
I0
tp2125
bS'http://fivethirtyeight.com/features/election-update-leave-the-la-times-poll-alone/'
p2126
tp2127
Rp2128
(lp2129
S'http://www.latimes.com/politics/'
p2130
aS'http://www.upi.com/Top_News/US/2016/08/23/UPICVoter-poll-Hillary-Clinton-Donald-Trump-hold-steady-in-virtual-tie/4241471961806/?spt=sec&or=tn'
p2131
asg1
(g2
(S'S98'
p2132
I0
I1
tp2133
Rp2134
(I3
S'|'
p2135
NNNI98
I1
I0
tp2136
bS'http://www.latimes.com/nation/politics/trailguide/la-na-trailguide-updates-08232016-htmlstory.html'
p2137
tp2138
Rp2139
(lp2140
S'http://www.nbcnews.com/politics/2016-election/trump-faces-hurdle-minority-voters-clinton-maintains-lead-poll-shows-n636061'
p2141
asg1
(g2
(S'S81'
p2142
I0
I1
tp2143
Rp2144
(I3
S'|'
p2145
NNNI81
I1
I0
tp2146
bS'http://www.politico.com/story/2016/11/poll-clinton-leads-trump-by-4-points-230821'
p2147
tp2148
Rp2149
(lp2150
S'http://www.nbcnews.com/storyline/2016-election-day/final-nbc-wsj-poll-clinton-holds-four-point-national-lead-n678611'
p2151
asg1
(g2
(S'S123'
p2152
I0
I1
tp2153
Rp2154
(I3
S'|'
p2155
NNNI123
I1
I0
tp2156
bS'http://www.breitbart.com/2016-presidential-race/2016/08/18/shock-poll-trumps-black-support-grows-6x-after-milwaukee-appeal/'
p2157
tp2158
Rp2159
(lp2160
S'http://cesrusc.org/election/'
p2161
asg1
(g2
(S'S111'
p2162
I0
I1
tp2163
Rp2164
(I3
S'|'
p2165
NNNI111
I1
I0
tp2166
bS'http://www.nbcnews.com/storyline/data-points/poll-hillary-clinton-holds-national-lead-over-donald-trump-n658721'
p2167
tp2168
Rp2169
(lp2170
S'https://www.scribd.com/document/326274653/NBC-News-SurveyMonkey-Toplines-and-Methodology-925-102?secret_password=Amlox28R6VL23C3oHhHA'
p2171
asg1
(g2
(S'S71'
p2172
I0
I1
tp2173
Rp2174
(I3
S'|'
p2175
NNNI71
I1
I0
tp2176
bS'https://today.yougov.com/news/2016/09/07/post-labor-day-unsettled-race/'
p2177
tp2178
Rp2179
(lp2180
S'https://today.yougov.com/news/2016/07/25/yougoveconomist-poll-july-23-24-2016/'
p2181
asg1
(g2
(S'S117'
p2182
I0
I1
tp2183
Rp2184
(I3
S'|'
p2185
NNNI117
I1
I0
tp2186
bS'http://www.nbcnews.com/news/asian-america/muslim-voters-name-civil-rights-key-election-issue-electorate-turns-n665716'
p2187
tp2188
Rp2189
(lp2190
S'http://www.nbcnews.com/politics/first-read/post-debate-poll-shows-clinton-holding-9-point-lead-over-n664541'
p2191
asg1
(g2
(S'S100'
p2192
I0
I1
tp2193
Rp2194
(I3
S'|'
p2195
NNNI100
I1
I0
tp2196
bS'http://www.bloomberg.com/politics/articles/2016-10-20/poll-shows-republicans-less-committed-to-trump'
p2197
tp2198
Rp2199
(lp2200
S'http://www.bloomberg.com/politics/articles/2016-10-19/national-poll'
p2201
asg1
(g2
(S'S86'
p2202
I0
I1
tp2203
Rp2204
(I3
S'|'
p2205
NNNI86
I1
I0
tp2206
bS'http://www.msnbc.com/rachel-maddow-show/latest-polls-offer-mixed-results-clinton-trump'
p2207
tp2208
Rp2209
(lp2210
S'http://www.foxnews.com/politics/interactive/2016/10/26/fox-news-poll-october-26-2016/'
p2211
aS'http://abcnews.go.com/Politics/slight-shifts-intention-aid-trump-amid-anxiety-candidates/story?id=43080562'
p2212
asg1
(g2
(S'S138'
p2213
I0
I1
tp2214
Rp2215
(I3
S'|'
p2216
NNNI138
I1
I0
tp2217
bS'http://www.investors.com/politics/clintons-lead-expands-to-4-points-as-her-campaign-is-rocked-by-new-email-scandal-bombshell-ibdtipp-poll/'
p2218
tp2219
Rp2220
(lp2221
S'http://www.investors.com/politics/ibd-tipp-presidential-election-poll/'
p2222
aS'http://www.investors.com/politics/ibd-tipp-presidential-election-poll/'
p2223
asg1
(g2
(S'S112'
p2224
I0
I1
tp2225
Rp2226
(I3
S'|'
p2227
NNNI112
I1
I0
tp2228
bS'http://www.ibtimes.com/donald-trump-delaware-ohio-rally-live-stream-watch-event-online-gop-nominee-talks-2434501'
p2229
tp2230
Rp2231
(lp2232
S'http://www.rasmussenreports.com/public_content/politics/elections/election_2016/white_house_watch_oct20'
p2233
asg1
(g2
(S'S109'
p2234
I0
I1
tp2235
Rp2236
(I3
S'|'
p2237
NNNI109
I1
I0
tp2238
bS'http://www.breitbart.com/2016-presidential-race/2016/08/20/la-times-poll-trump-takes-half-point-lead-clinton/'
p2239
tp2240
Rp2241
(lp2242
S'http://www.latimes.com/politics/'
p2243
asg1
(g2
(S'S72'
p2244
I0
I1
tp2245
Rp2246
(I3
S'|'
p2247
NNNI72
I1
I0
tp2248
bS'http://reason.com/blog/2016/09/13/poll-gary-johnson-first-place-military'
p2249
tp2250
Rp2251
(lp2252
S'http://i2.cdn.turner.com/cnn/2016/images/09/05/rel13a.-.2016.post-labor.day.pdf'
p2253
aS'http://i2.cdn.turner.com/cnn/2016/images/09/05/rel13a.-.2016.post-labor.day.pdf'
p2254
asg1
(g2
(S'S95'
p2255
I0
I1
tp2256
Rp2257
(I3
S'|'
p2258
NNNI95
I1
I0
tp2259
bS'https://www.theguardian.com/us-news/2016/oct/31/polls-donald-trump-hillary-clinton-unpopularity'
p2260
tp2261
Rp2262
(lp2263
S'http://www.langerresearch.com/wp-content/uploads/1184a92016ElectionTrackingNo9.pdf'
p2264
aS'http://www.investors.com/politics/ibd-tipp-presidential-election-poll/'
p2265
asg1
(g2
(S'S117'
p2266
I0
I1
tp2267
Rp2268
(I3
S'|'
p2269
NNNI117
I1
I0
tp2270
bS'http://www.breitbart.com/2016-presidential-race/2016/09/25/morning-consult-poll-donald-trump-leads-hillary-one-point/'
p2271
tp2272
Rp2273
(lp2274
S'https://morningconsult.com/2016/09/25/trump-edges-clinton-ahead-first-debate/'
p2275
asg1
(g2
(S'S107'
p2276
I0
I1
tp2277
Rp2278
(I3
S'|'
p2279
NNNI107
I1
I0
tp2280
bS'http://abcnews.go.com/Politics/qualifications-consistency-clinton-turnout-trump-hunt-poll/story?id=41984690'
p2281
tp2282
Rp2283
(lp2284
S'http://www.langerresearch.com/wp-content/uploads/1181a12016Election.pdf'
p2285
asg1
(g2
(S'S105'
p2286
I0
I1
tp2287
Rp2288
(I3
S'|'
p2289
NNNI105
I1
I0
tp2290
bS'http://www.cbsnews.com/news/2016-election-numbers-hillary-clinton-donald-trump-tv-advertisement-spending/'
p2291
tp2292
Rp2293
(lp2294
S'http://www.nbcnews.com/politics/2016-election/trump-faces-hurdle-minority-voters-clinton-maintains-lead-poll-shows-n636061'
p2295
asg1
(g2
(S'S102'
p2296
I0
I1
tp2297
Rp2298
(I3
S'|'
p2299
NNNI102
I1
I0
tp2300
bS'http://www.people-press.org/2016/10/27/3-views-of-candidate-insults-criticism-and-political-divisions/'
p2301
tp2302
Rp2303
(lp2304
S'http://www.people-press.org/2016/10/27/as-election-nears-voters-divided-over-democracy-and-respect/'
p2305
aS'http://www.people-press.org/2016/10/27/as-election-nears-voters-divided-over-democracy-and-respect/'
p2306
aS'http://www.people-press.org/2016/10/27/as-election-nears-voters-divided-over-democracy-and-respect/'
p2307
asg1
(g2
(S'S112'
p2308
I0
I1
tp2309
Rp2310
(I3
S'|'
p2311
NNNI112
I1
I0
tp2312
bS'http://www.ibtimes.com/hillary-clinton-donald-trump-latest-swing-states-polls-florida-pennsylvania-north-2423203'
p2313
tp2314
Rp2315
(lp2316
S'https://morningconsult.com/wp-content/uploads/2016/09/160915_crosstabs_trend_v1_LIKELYVOTERS_AD.pdf'
p2317
asg1
(g2
(S'S115'
p2318
I0
I1
tp2319
Rp2320
(I3
S'|'
p2321
NNNI115
I1
I0
tp2322
bS'http://www.rushlimbaugh.com/daily/2016/10/11/drive_by_media_the_election_is_over_trump_is_done_and_limbaugh_is_next'
p2323
tp2324
Rp2325
(lp2326
S'http://www.nbcnews.com/politics/first-read/post-debate-poll-shows-clinton-holding-9-point-lead-over-n664541'
p2327
asg1
(g2
(S'S83'
p2328
I0
I1
tp2329
Rp2330
(I3
S'|'
p2331
NNNI83
I1
I0
tp2332
bS'http://www.newsmax.com/Headline/Rasmussen-Trump-Leads-Clinton/2016/09/15/id/748493/'
p2333
tp2334
Rp2335
(lp2336
S'http://www.rasmussenreports.com/public_content/politics/elections/election_2016/white_house_watch'
p2337
asg1
(g2
(S'S114'
p2338
I0
I1
tp2339
Rp2340
(I3
S'|'
p2341
NNNI114
I1
I0
tp2342
bS'http://www.realclearpolitics.com/articles/2016/08/16/trump_targets_terrorism_in_latest_campaign_reboot_131518.html'
p2343
tp2344
Rp2345
(lp2346
S'http://www.foxnews.com/politics/interactive/2016/08/03/fox-news-poll-aug-3-2016/'
p2347
asg1
(g2
(S'S88'
p2348
I0
I1
tp2349
Rp2350
(I3
S'|'
p2351
NNNI88
I1
I0
tp2352
bS'http://hotair.com/archives/2016/09/22/trumps-rocky-mountain-low-colorado-poll-puts-35-9/'
p2353
tp2354
Rp2355
(lp2356
S'http://media.wix.com/ugd/3bebb2_b53ca6b673c14cdab9d68832bd7e74cb.pdf'
p2357
asg1
(g2
(S'S125'
p2358
I0
I1
tp2359
Rp2360
(I3
S'|'
p2361
NNNI125
I1
I0
tp2362
bS'https://www.washingtonpost.com/blogs/plum-line/wp/2016/08/02/donald-trump-begins-contemplating-the-unthinkable-he-might-lose/'
p2363
tp2364
Rp2365
(lp2366
S'http://www.nbcnews.com/politics/2016-election/poll-clinton-support-spikes-following-democratic-convention-n621071'
p2367
aS'http://i2.cdn.turner.com/cnn/2016/images/08/01/2016.post-dem.convention.pdf'
p2368
asg1
(g2
(S'S94'
p2369
I0
I1
tp2370
Rp2371
(I3
S'|'
p2372
NNNI94
I1
I0
tp2373
bS'http://www.newswise.com/articles/clinton-gains-5-points-to-tie-trump-in-post-dnc-daybreak-poll'
p2374
tp2375
Rp2376
(lp2377
S'http://cesrusc.org/election/'
p2378
aS'http://www.latimes.com/politics/'
p2379
asg1
(g2
(S'S94'
p2380
I0
I1
tp2381
Rp2382
(I3
S'|'
p2383
NNNI94
I1
I0
tp2384
bS'http://www.foxnews.com/politics/2016/11/02/swing-state-polls-measure-minimal-comey-effect.html'
p2385
tp2386
Rp2387
(lp2388
S'http://www.investors.com/politics/ibd-tipp-presidential-election-poll/'
p2389
aS'http://www.foxnews.com/politics/interactive/2016/10/26/fox-news-poll-october-26-2016/'
p2390
aS'http://www.people-press.org/2016/10/27/as-election-nears-voters-divided-over-democracy-and-respect/'
p2391
aS'http://fm.cnbc.com/applications/cnbc.com/resources/editorialfiles/2016/10/27/survey.pdf'
p2392
aS'http://www.investors.com/politics/ibd-tipp-presidential-election-poll/'
p2393
aS'http://www.foxnews.com/politics/interactive/2016/10/26/fox-news-poll-october-26-2016/'
p2394
aS'http://www.people-press.org/2016/10/27/as-election-nears-voters-divided-over-democracy-and-respect/'
p2395
aS'http://fm.cnbc.com/applications/cnbc.com/resources/editorialfiles/2016/10/27/survey.pdf'
p2396
asg1
(g2
(S'S42'
p2397
I0
I1
tp2398
Rp2399
(I3
S'|'
p2400
NNNI42
I1
I0
tp2401
bS'http://www.snopes.com/carter-reagan-polls/'
p2402
tp2403
Rp2404
(lp2405
S'http://www.foxnews.com/politics/2016/10/18/fox-news-poll-clinton-tops-trump-by-6-points.html'
p2406
asg1
(g2
(S'S93'
p2407
I0
I1
tp2408
Rp2409
(I3
S'|'
p2410
NNNI93
I1
I0
tp2411
bS'http://www.foxnews.com/politics/2016/10/14/fox-news-poll-clinton-leads-trump-by-7-points.html'
p2412
tp2413
Rp2414
(lp2415
S'http://www.foxnews.com/politics/interactive/2016/10/13/fox-news-poll-october-13-2016/'
p2416
asg1
(g2
(S'S88'
p2417
I0
I1
tp2418
Rp2419
(I3
S'|'
p2420
NNNI88
I1
I0
tp2421
bS'http://www.breitbart.com/big-government/2016/11/05/trump-gains-african-american-support/'
p2422
tp2423
Rp2424
(lp2425
S'http://www.investors.com/politics/ibd-tipp-presidential-election-poll/'
p2426
asg1
(g2
(S'S144'
p2427
I0
I1
tp2428
Rp2429
(I3
S'|'
p2430
NNNI144
I1
I0
tp2431
bS'http://www.upi.com/Top_News/US/2016/08/22/UPICVoter-poll-Donald-Trump-sticks-to-script-comes-to-within-1-of-Hillary-Clintons-lead/3141471867581/'
p2432
tp2433
Rp2434
(lp2435
S'http://www.upi.com/Top_News/US/2016/08/12/UPICVoter-poll-Hillary-Clinton-rebounds-after-3-days-of-lost-ground/3301470942640/?spt=sec&or=tn'
p2436
asg1
(g2
(S'S171'
p2437
I0
I1
tp2438
Rp2439
(I3
S'|'
p2440
NNNI171
I1
I0
tp2441
bS'https://www.washingtonpost.com/news/the-fix/wp/2016/08/05/a-new-poll-has-donald-trump-in-fourth-place-behind-hillary-clinton-gary-johnson-and-jill-stein-with-young-people/'
p2442
tp2443
Rp2444
(lp2445
S'http://www.foxnews.com/politics/interactive/2016/08/03/fox-news-poll-aug-3-2016/'
p2446
asg1
(g2
(S'S145'
p2447
I0
I1
tp2448
Rp2449
(I3
S'|'
p2450
NNNI145
I1
I0
tp2451
bS'https://www.washingtonpost.com/news/monkey-cage/wp/2016/11/08/a-comprehensive-average-of-election-forecasts-points-to-a-decisive-clinton-victory/'
p2452
tp2453
Rp2454
(lp2455
S'https://today.yougov.com/news/2016/10/27/yougoveconomist-poll-october-22-26-2016/'
p2456
asg1
(g2
(S'S153'
p2457
I0
I1
tp2458
Rp2459
(I3
S'|'
p2460
NNNI153
I1
I0
tp2461
bS'http://www.inquisitr.com/3373661/2016-presidential-polls-post-convention-hillary-clinton-leads-again-gary-johnson-and-jill-stein-support-growing-quickly/'
p2462
tp2463
Rp2464
(lp2465
S'http://i2.cdn.turner.com/cnn/2016/images/08/01/2016.post-dem.convention.pdf'
p2466
asg1
(g2
(S'S100'
p2467
I0
I1
tp2468
Rp2469
(I3
S'|'
p2470
NNNI100
I1
I0
tp2471
bS'http://www.aol.com/article/news/2016/09/05/clinton-falls-in-the-polls-controveries-pile-up/21465376/'
p2472
tp2473
Rp2474
(lp2475
S'http://www.rasmussenreports.com/public_content/politics/elections/election_2016/white_house_watch'
p2476
aS'https://morningconsult.com/2016/09/04/trumps-immigration-stance-isnt-hurting/'
p2477
asg1
(g2
(S'S55'
p2478
I0
I1
tp2479
Rp2480
(I3
S'|'
p2481
NNNI55
I1
I0
tp2482
bS'http://qz.com/810382/what-if-the-polls-are-wrong-again/'
p2483
tp2484
Rp2485
(lp2486
S'http://www.rasmussenreports.com/public_content/politics/elections/election_2016/white_house_watch_oct14'
p2487
asg1
(g2
(S'S171'
p2488
I0
I1
tp2489
Rp2490
(I3
S'|'
p2491
NNNI171
I1
I0
tp2492
bS'http://www.theatlantic.com/press-releases/archive/2016/10/new-prrithe-atlantic-poll-clinton-jumps-to-11-point-lead-as-trump-support-plummets-following-tape-scandal/503651/'
p2493
tp2494
Rp2495
(lp2496
S'http://www.prri.org/wp-content/uploads/2016/10/PRRIThe-Atlantic-Survey-Topline-Oct.-9.pdf'
p2497
asg1
(g2
(S'S101'
p2498
I0
I1
tp2499
Rp2500
(I3
S'|'
p2501
NNNI101
I1
I0
tp2502
bS'http://www.politicususa.com/2016/09/29/national-poll-shows-clinton-opening-five-point-lead-trump.html'
p2503
tp2504
Rp2505
(lp2506
S'https://luc.id/2016-presidential-tracker/'
p2507
asg1
(g2
(S'S78'
p2508
I0
I1
tp2509
Rp2510
(I3
S'|'
p2511
NNNI78
I1
I0
tp2512
bS'http://www.newsmax.com/Headline/trump-leads-hillary-poll/2016/10/20/id/754489/'
p2513
tp2514
Rp2515
(lp2516
S'http://www.rasmussenreports.com/public_content/politics/elections/election_2016/white_house_watch_oct20'
p2517
asg1
(g2
(S'S75'
p2518
I0
I1
tp2519
Rp2520
(I3
S'|'
p2521
NNNI75
I1
I0
tp2522
bS'http://www.bloomberg.com/politics/articles/2016-10-03/trump-worst-week-ever'
p2523
tp2524
Rp2525
(lp2526
S'http://www.foxnews.com/politics/interactive/2016/09/30/full-fox-news-poll-results-30/'
p2527
asg1
(g2
(S'S98'
p2528
I0
I1
tp2529
Rp2530
(I3
S'|'
p2531
NNNI98
I1
I0
tp2532
bS'http://hotair.com/archives/2016/09/18/morning-consult-hillary-still-leads-statistical-tie-somehow/'
p2533
tp2534
Rp2535
(lp2536
S'https://morningconsult.com/2016/09/18/clinton-maintains-lead-trump-despite-health-scare/'
p2537
asg1
(g2
(S'S88'
p2538
I0
I1
tp2539
Rp2540
(I3
S'|'
p2541
NNNI88
I1
I0
tp2542
bS'http://www.weeklystandard.com/nbc-poll-clinton-leads-trump-by-six-points/article/2004177'
p2543
tp2544
Rp2545
(lp2546
S'http://www.nbcnews.com/politics/2016-election/clinton-holds-steady-against-trump-campaign-enters-final-weeks-poll-n642931'
p2547
aS'http://www.nbcnews.com/politics/2016-election/clinton-holds-steady-against-trump-campaign-enters-final-weeks-poll-n642931'
p2548
asg1
(g2
(S'S116'
p2549
I0
I1
tp2550
Rp2551
(I3
S'|'
p2552
NNNI116
I1
I0
tp2553
bS'http://www.ibtimes.com/hillary-clinton-donald-trump-latest-polls-clinton-leading-florida-pennsylvania-nevada-2425166'
p2554
tp2555
Rp2556
(lp2557
S'http://www.foxnews.com/politics/interactive/2016/09/30/full-fox-news-poll-results-30/'
p2558
aS'http://www.people-press.org/2016/08/18/1-voters-general-election-preferences/'
p2559
asg1
(g2
(S'S87'
p2560
I0
I1
tp2561
Rp2562
(I3
S'|'
p2563
NNNI87
I1
I0
tp2564
bS'http://www.cnn.com/2016/10/24/politics/hillary-clinton-donald-trump-presidential-polls/'
p2565
tp2566
Rp2567
(lp2568
S'http://i2.cdn.turner.com/cnn/2016/images/10/24/cnn.poll.pdf'
p2569
aS'http://i2.cdn.turner.com/cnn/2016/images/10/24/cnn.poll.pdf'
p2570
asg1
(g2
(S'S123'
p2571
I0
I1
tp2572
Rp2573
(I3
S'|'
p2574
NNNI123
I1
I0
tp2575
bS'http://www.wkbw.com/news/us-news-world/democracy-2016/clinton-trump-a-gorilla-what-a-unique-question-tells-us-about-polls-1'
p2576
tp2577
Rp2578
(lp2579
S'http://www.publicpolicypolling.com/pdf/2015/PPP_Release_National_7302016.pdf'
p2580
asg1
(g2
(S'S151'
p2581
I0
I1
tp2582
Rp2583
(I3
S'|'
p2584
NNNI151
I1
I0
tp2585
bS'http://www.breitbart.com/2016-presidential-race/2016/08/26/exclusive-breitbartgravis-poll-hillary-clinton-donald-trump-now-neck-and-neck-ending-august/'
p2586
tp2587
Rp2588
(lp2589
S'https://www.scribd.com/document/322263998/Breitbart-National-Poll-Aug-26-Release'
p2590
aS'http://www.breitbart.com/2016-presidential-race/2016/08/14/breitbartgravis-poll-hillary-clinton-leads-donald-trump-42-to-37/'
p2591
aS'http://www.breitbart.com/2016-presidential-race/2016/08/14/breitbartgravis-poll-hillary-clinton-leads-donald-trump-42-to-37/'
p2592
asg1
(g2
(S'S65'
p2593
I0
I1
tp2594
Rp2595
(I3
S'|'
p2596
NNNI65
I1
I0
tp2597
bS'http://fortune.com/2016/10/16/donald-trump-hillary-clinton-polls/'
p2598
tp2599
Rp2600
(lp2601
S'http://www.nbcnews.com/politics/first-read/clinton-holds-11-point-national-lead-over-trump-nbc-wsj-n666986'
p2602
aS'http://www.nbcnews.com/politics/first-read/clinton-holds-11-point-national-lead-over-trump-nbc-wsj-n666986'
p2603
asg1
(g2
(S'S102'
p2604
I0
I1
tp2605
Rp2606
(I3
S'|'
p2607
NNNI102
I1
I0
tp2608
bS'http://www.nydailynews.com/news/politics/harambe-gorilla-presidential-candidate-poll-article-1.2733080'
p2609
tp2610
Rp2611
(lp2612
S'http://www.publicpolicypolling.com/pdf/2015/PPP_Release_National_7302016.pdf'
p2613
asg1
(g2
(S'S87'
p2614
I0
I1
tp2615
Rp2616
(I3
S'|'
p2617
NNNI87
I1
I0
tp2618
bS'http://www.politico.com/story/2016/10/hillary-clinton-donald-trump-abc-wapo-poll-230488'
p2619
tp2620
Rp2621
(lp2622
S'http://www.langerresearch.com/wp-content/uploads/1184a72016ElectionTrackingNo7.pdf'
p2623
asg1
(g2
(S'S81'
p2624
I0
I1
tp2625
Rp2626
(I3
S'|'
p2627
NNNI81
I1
I0
tp2628
bS'http://www.politico.com/story/2016/09/donald-trump-electoral-college-polls-228249'
p2629
tp2630
Rp2631
(lp2632
S'http://www.langerresearch.com/wp-content/uploads/1181a12016Election.pdf'
p2633
asg1
(g2
(S'S133'
p2634
I0
I1
tp2635
Rp2636
(I3
S'|'
p2637
NNNI133
I1
I0
tp2638
bS'http://www.salon.com/2016/08/15/sad-breitbart-commissions-poll-to-unskew-mainstream-media-filter-still-finds-trump-losing-to-clinton/'
p2639
tp2640
Rp2641
(lp2642
S'http://www.breitbart.com/2016-presidential-race/2016/08/14/breitbartgravis-poll-hillary-clinton-leads-donald-trump-42-to-37/'
p2643
asg1
(g2
(S'S81'
p2644
I0
I1
tp2645
Rp2646
(I3
S'|'
p2647
NNNI81
I1
I0
tp2648
bS'http://www.politico.com/magazine/story/2016/10/gop-women-donald-trump-2016-214318'
p2649
tp2650
Rp2651
(lp2652
S'http://www.monmouth.edu/polling-institute/reports/MonmouthPoll_US_080816/'
p2653
asg1
(g2
(S'S101'
p2654
I0
I1
tp2655
Rp2656
(I3
S'|'
p2657
NNNI101
I1
I0
tp2658
bS'http://www.cnn.com/2016/11/03/politics/presidential-polls-hillary-clinton-donald-trump-election-2016/'
p2659
tp2660
Rp2661
(lp2662
S'http://www.cbsnews.com/news/five-days-to-go-the-presidential-race-tightens-cbsnyt-poll/'
p2663
asg1
(g2
(S'S79'
p2664
I0
I1
tp2665
Rp2666
(I3
S'|'
p2667
NNNI79
I1
I0
tp2668
bS'http://www.businessinsider.com/hillary-clinton-poll-winning-after-debate-2016-9'
p2669
tp2670
Rp2671
(lp2672
S'https://morningconsult.com/wp-content/uploads/2016/09/160915_crosstabs_trend_v1_LIKELYVOTERS_AD.pdf'
p2673
asg1
(g2
(S'S100'
p2674
I0
I1
tp2675
Rp2676
(I3
S'|'
p2677
NNNI100
I1
I0
tp2678
bS'http://www.nj.com/politics/index.ssf/2016/09/enthusiasm_gap_narrows_trump-clinton_gap_in_opinio.html'
p2679
tp2680
Rp2681
(lp2682
S'http://www.foxnews.com/politics/interactive/2016/09/15/fox-news-poll-sept-15-2016/'
p2683
asg1
(g2
(S'S87'
p2684
I0
I1
tp2685
Rp2686
(I3
S'|'
p2687
NNNI87
I1
I0
tp2688
bS'http://www.nytimes.com/2016/09/05/us/politics/gary-johnson-libertarian-third-party.html'
p2689
tp2690
Rp2691
(lp2692
S'http://www.people-press.org/2016/08/18/1-voters-general-election-preferences/'
p2693
asg1
(g2
(S'S117'
p2694
I0
I1
tp2695
Rp2696
(I3
S'|'
p2697
NNNI117
I1
I0
tp2698
bS'https://www.washingtonpost.com/news/the-fix/wp/2016/08/12/if-donald-trump-wins-in-2016-remember-this-one-poll-number/'
p2699
tp2700
Rp2701
(lp2702
S'http://cesrusc.org/election/'
p2703
asg1
(g2
(S'S120'
p2704
I0
I1
tp2705
Rp2706
(I3
S'|'
p2707
NNNI120
I1
I0
tp2708
bS'http://www.breitbart.com/big-government/2016/09/26/analysis-donald-trump-would-win-election-today-based-current-polling/'
p2709
tp2710
Rp2711
(lp2712
S'http://media.wix.com/ugd/3bebb2_b53ca6b673c14cdab9d68832bd7e74cb.pdf'
p2713
asg1
(g2
(S'S82'
p2714
I0
I1
tp2715
Rp2716
(I3
S'|'
p2717
NNNI82
I1
I0
tp2718
bS'http://fivethirtyeight.com/features/election-update-trumps-slump-deepens-in-polls/'
p2719
tp2720
Rp2721
(lp2722
S'http://www.foxnews.com/politics/interactive/2016/08/03/fox-news-poll-aug-3-2016/'
p2723
aS'http://www.mcclatchydc.com/news/politics-government/election/article93763582.html'
p2724
asg1
(g2
(S'S96'
p2725
I0
I1
tp2726
Rp2727
(I3
S'|'
p2728
NNNI96
I1
I0
tp2729
bS'http://dailycaller.com/2016/09/01/donald-trump-takes-lead-over-hillary-clinton-in-national-poll/'
p2730
tp2731
Rp2732
(lp2733
S'http://www.rasmussenreports.com/public_content/politics/elections/election_2016/white_house_watch'
p2734
asg1
(g2
(S'S116'
p2735
I0
I1
tp2736
Rp2737
(I3
S'|'
p2738
NNNI116
I1
I0
tp2739
bS'http://www.ibtimes.com/trump-clinton-poll-numbers-pennsylvania-north-carolina-other-swing-states-still-grabs-2439748'
p2740
tp2741
Rp2742
(lp2743
S'http://cesrusc.org/election/'
p2744
aS'http://www.investors.com/politics/ibd-tipp-presidential-election-poll/'
p2745
aS'http://www.rasmussenreports.com/public_content/politics/elections/election_2016/white_house_watch_oct31'
p2746
aS'https://today.yougov.com/news/2016/10/27/yougoveconomist-poll-october-22-26-2016/'
p2747
asg1
(g2
(S'S111'
p2748
I0
I1
tp2749
Rp2750
(I3
S'|'
p2751
NNNI111
I1
I0
tp2752
bS'http://www.ibtimes.com/hillary-clinton-donald-trump-latest-swing-states-polls-florida-ohio-pennsylvania-2427396'
p2753
tp2754
Rp2755
(lp2756
S'http://www.rasmussenreports.com/public_content/politics/elections/election_2016/white_house_watch_oct06'
p2757
asg1
(g2
(S'S70'
p2758
I0
I1
tp2759
Rp2760
(I3
S'|'
p2761
NNNI70
I1
I0
tp2762
bS'http://www.nytimes.com/interactive/2016/10/30/upshot/florida-poll.html'
p2763
tp2764
Rp2765
(lp2766
S'http://polls.saintleo.edu/wp-content/uploads/2016/09/SLU-September-2016-Poll_Complete-Findings.pdf'
p2767
asg1
(g2
(S'S153'
p2768
I0
I1
tp2769
Rp2770
(I3
S'|'
p2771
NNNI153
I1
I0
tp2772
bS'http://www.breitbart.com/2016-presidential-race/2016/09/11/morning-consult-poll-presidential-race-near-toss-up-with-clinton-leading-trump-by-one-percent/'
p2773
tp2774
Rp2775
(lp2776
S'https://morningconsult.com/2016/09/11/presidential-race-near-toss-among-likely-voters/'
p2777
aS'https://morningconsult.com/2016/09/11/presidential-race-near-toss-among-likely-voters/'
p2778
asg1
(g2
(S'S100'
p2779
I0
I1
tp2780
Rp2781
(I3
S'|'
p2782
NNNI100
I1
I0
tp2783
bS'http://nymag.com/daily/intelligencer/2016/11/final-polls-show-a-race-that-looks-a-lot-like-2012.html'
p2784
tp2785
Rp2786
(lp2787
S'http://cesrusc.org/election/'
p2788
aS'http://www.investors.com/politics/ibd-tipp-presidential-election-poll/'
p2789
asg1
(g2
(S'S76'
p2790
I0
I1
tp2791
Rp2792
(I3
S'|'
p2793
NNNI76
I1
I0
tp2794
bS'https://today.yougov.com/news/2016/10/19/clinton-maintains-lead-last-debate/'
p2795
tp2796
Rp2797
(lp2798
S'https://today.yougov.com/news/2016/10/19/yougoveconomist-poll-october-15-18-2016/'
p2799
asg1
(g2
(S'S88'
p2800
I0
I1
tp2801
Rp2802
(I3
S'|'
p2803
NNNI88
I1
I0
tp2804
bS'http://www.latimes.com/politics/la-na-pol-poll-uncertain-voters-20160908-snap-story.html'
p2805
tp2806
Rp2807
(lp2808
S'http://www.people-press.org/2016/08/18/1-voters-general-election-preferences/'
p2809
asg1
(g2
(S'S101'
p2810
I0
I1
tp2811
Rp2812
(I3
S'|'
p2813
NNNI101
I1
I0
tp2814
bS'http://www.cbsnews.com/news/election-2016-state-of-the-presidential-race-two-weeks-from-election-day/'
p2815
tp2816
Rp2817
(lp2818
S'http://www.cbsnews.com/news/cbs-poll-clintons-lead-over-trump-widens-with-three-weeks-to-go/'
p2819
asg1
(g2
(S'S120'
p2820
I0
I1
tp2821
Rp2822
(I3
S'|'
p2823
NNNI120
I1
I0
tp2824
bS'http://www.citywatchla.com/index.php/the-la-beat/12021-lat-should-be-ashamed-times-usc-daybreak-poll-dishonors-the-paper'
p2825
tp2826
Rp2827
(lp2828
S'http://cesrusc.org/election/'
p2829
asg1
(g2
(S'S103'
p2830
I0
I1
tp2831
Rp2832
(I3
S'|'
p2833
NNNI103
I1
I0
tp2834
bS'http://www.latimes.com/nation/politics/trailguide/la-na-live-updates-trailguide-09282016-htmlstory.html'
p2835
tp2836
Rp2837
(lp2838
S'https://morningconsult.com/wp-content/uploads/2016/09/160915_crosstabs_trend_v1_LIKELYVOTERS_AD.pdf'
p2839
asg1
(g2
(S'S77'
p2840
I0
I1
tp2841
Rp2842
(I3
S'|'
p2843
NNNI77
I1
I0
tp2844
bS'https://today.yougov.com/news/2016/10/27/less-two-weeks-go-clinton-lead-five/'
p2845
tp2846
Rp2847
(lp2848
S'https://today.yougov.com/news/2016/10/27/yougoveconomist-poll-october-22-26-2016/'
p2849
aS'https://today.yougov.com/news/2016/10/19/yougoveconomist-poll-october-15-18-2016/'
p2850
asg1
(g2
(S'S119'
p2851
I0
I1
tp2852
Rp2853
(I3
S'|'
p2854
NNNI119
I1
I0
tp2855
bS'http://www.people-press.org/2016/10/14/in-presidential-contest-voters-say-basic-facts-not-just-policies-are-in-dispute/'
p2856
tp2857
Rp2858
(lp2859
S'http://www.people-press.org/2016/10/27/as-election-nears-voters-divided-over-democracy-and-respect/'
p2860
asg1
(g2
(S'S118'
p2861
I0
I1
tp2862
Rp2863
(I3
S'|'
p2864
NNNI118
I1
I0
tp2865
bS'https://www.washingtonpost.com/blogs/plum-line/wp/2016/10/14/obamas-new-message-about-donald-trump-the-gop-built-that/'
p2866
tp2867
Rp2868
(lp2869
S'http://www.foxnews.com/politics/interactive/2016/10/13/fox-news-poll-october-13-2016/'
p2870
asg1
(g2
(S'S93'
p2871
I0
I1
tp2872
Rp2873
(I3
S'|'
p2874
NNNI93
I1
I0
tp2875
bS'http://www.theatlantic.com/politics/archive/2016/10/prri-atlantic-poll-trump-plummets/503561/'
p2876
tp2877
Rp2878
(lp2879
S'http://www.prri.org/wp-content/uploads/2016/10/PRRIThe-Atlantic-Survey-Topline-Oct.-9.pdf'
p2880
asg1
(g2
(S'S70'
p2881
I0
I1
tp2882
Rp2883
(I3
S'|'
p2884
NNNI70
I1
I0
tp2885
bS'http://www.reuters.com/article/us-ipsos-polls-commentary-idUSKBN12Y22O'
p2886
tp2887
Rp2888
(lp2889
S'http://polling.reuters.com/'
p2890
asg1
(g2
(S'S114'
p2891
I0
I1
tp2892
Rp2893
(I3
S'|'
p2894
NNNI114
I1
I0
tp2895
bS'http://www.foxnews.com/politics/2016/08/03/fox-news-poll-clinton-leads-trump-by-10-points-both-seen-as-flawed.html'
p2896
tp2897
Rp2898
(lp2899
S'http://www.foxnews.com/politics/interactive/2016/08/03/fox-news-poll-aug-3-2016/'
p2900
asg1
(g2
(S'S86'
p2901
I0
I1
tp2902
Rp2903
(I3
S'|'
p2904
NNNI86
I1
I0
tp2905
bS'http://www.businessinsider.com/poll-says-clinton-leading-trump-what-that-means-2016-10'
p2906
tp2907
Rp2908
(lp2909
S'https://www.monmouth.edu/polling-institute/reports/MonmouthPoll_US_101716/'
p2910
aS'http://www.nbcnews.com/politics/first-read/clinton-holds-11-point-national-lead-over-trump-nbc-wsj-n666986'
p2911
asg1
(g2
(S'S68'
p2912
I0
I1
tp2913
Rp2914
(I3
S'|'
p2915
NNNI68
I1
I0
tp2916
bS'http://www.businessinsider.com/is-donald-trump-winning-polls-2016-10'
p2917
tp2918
Rp2919
(lp2920
S'http://www.investors.com/politics/ibd-tipp-presidential-election-poll/'
p2921
aS'http://www.rasmussenreports.com/public_content/politics/elections/election_2016/white_house_watch_oct21'
p2922
asg1
(g2
(S'S96'
p2923
I0
I1
tp2924
Rp2925
(I3
S'|'
p2926
NNNI96
I1
I0
tp2927
bS'http://www.washingtontimes.com/news/2016/nov/7/hillary-clinton-leads-donald-trump-3-points-poll/'
p2928
tp2929
Rp2930
(lp2931
S'http://www.bloomberg.com/politics/articles/2016-11-07/national-poll'
p2932
aS'http://www.cbsnews.com/news/cbs-news-poll-state-of-the-race-the-day-before-election-day/'
p2933
aS'http://www.investors.com/politics/ibd-tipp-presidential-election-poll/'
p2934
asg1
(g2
(S'S80'
p2935
I0
I1
tp2936
Rp2937
(I3
S'|'
p2938
NNNI80
I1
I0
tp2939
bS'http://www.vanityfair.com/news/2016/11/trump-clinton-presidential-election-polls'
p2940
tp2941
Rp2942
(lp2943
S'http://www.politico.com/story/2016/10/clinton-emails-comey-poll-politico-morning-consult-230519'
p2944
asg1
(g2
(S'S137'
p2945
I0
I1
tp2946
Rp2947
(I3
S'|'
p2948
NNNI137
I1
I0
tp2949
bS'http://www.politico.com/blogs/2016-presidential-debate-fact-check/2016/10/vice-presidential-debate-pence-kaine-clinton-trustworthy-229135'
p2950
tp2951
Rp2952
(lp2953
S'http://i2.cdn.turner.com/cnn/2016/images/09/05/rel13a.-.2016.post-labor.day.pdf'
p2954
asg1
(g2
(S'S120'
p2955
I0
I1
tp2956
Rp2957
(I3
S'|'
p2958
NNNI120
I1
I0
tp2959
bS'http://www.bloomberg.com/politics/articles/2016-09-16/libertarian-johnson-adds-to-clinton-s-challenges-with-young-voters'
p2960
tp2961
Rp2962
(lp2963
S'https://www.qu.edu/images/polling/us/us09142016_U27xtpb.pdf'
p2964
asg1
(g2
(S'S73'
p2965
I0
I1
tp2966
Rp2967
(I3
S'|'
p2968
NNNI73
I1
I0
tp2969
bS'http://reason.com/blog/2016/10/14/evan-mcmullin-could-tip-the-election-so'
p2970
tp2971
Rp2972
(lp2973
S'http://www.publicpolicypolling.com/pdf/2015/PPP_Release_National_92916.pdf'
p2974
asg1
(g2
(S'S116'
p2975
I0
I1
tp2976
Rp2977
(I3
S'|'
p2978
NNNI116
I1
I0
tp2979
bS'https://www.bustle.com/articles/192296-is-hillary-clinton-a-demon-is-a-poll-question-voters-have-actually-been-asked'
p2980
tp2981
Rp2982
(lp2983
S'http://www.publicpolicypolling.com/pdf/2015/PPP_Release_National_7302016.pdf'
p2984
asg1
(g2
(S'S112'
p2985
I0
I1
tp2986
Rp2987
(I3
S'|'
p2988
NNNI112
I1
I0
tp2989
bS'http://www.westernjournalism.com/new-poll-shows-trump-narrowing-the-gap-as-he-wins-support-from-key-populations/'
p2990
tp2991
Rp2992
(lp2993
S'http://zogbyanalytics.com/news/756-clinton-and-trump-in-statistical-tie-trump-has-closed-the-gap-among-older-millennials'
p2994
aS'http://zogbyanalytics.com/news/756-clinton-and-trump-in-statistical-tie-trump-has-closed-the-gap-among-older-millennials'
p2995
aS'http://zogbyanalytics.com/news/756-clinton-and-trump-in-statistical-tie-trump-has-closed-the-gap-among-older-millennials'
p2996
asg1
(g2
(S'S94'
p2997
I0
I1
tp2998
Rp2999
(I3
S'|'
p3000
NNNI94
I1
I0
tp3001
bS'http://abcnews.go.com/Politics/clinton-trump-tied-democratic-enthusiasm-dips/story?id=43199459'
p3002
tp3003
Rp3004
(lp3005
S'http://www.langerresearch.com/wp-content/uploads/1184a102016ElectionTrackingNo10.pdf'
p3006
asg1
(g2
(S'S74'
p3007
I0
I1
tp3008
Rp3009
(I3
S'|'
p3010
NNNI74
I1
I0
tp3011
bS'http://hotair.com/archives/2016/08/11/poll-trump-leads-in-key-swing-state/'
p3012
tp3013
Rp3014
(lp3015
S'http://www.rasmussenreports.com/public_content/politics/elections/election_2016/white_house_watch'
p3016
asg1
(g2
(S'S96'
p3017
I0
I1
tp3018
Rp3019
(I3
S'|'
p3020
NNNI96
I1
I0
tp3021
bS'http://pix11.com/2016/07/31/five-percent-of-americans-would-vote-for-harambe-for-president-poll/'
p3022
tp3023
Rp3024
(lp3025
S'http://www.publicpolicypolling.com/pdf/2015/PPP_Release_National_7302016.pdf'
p3026
asg1
(g2
(S'S82'
p3027
I0
I1
tp3028
Rp3029
(I3
S'|'
p3030
NNNI82
I1
I0
tp3031
bS'http://www.nola.com/politics/index.ssf/2016/11/clinton_leads_trump_44-39_in_l.html'
p3032
tp3033
Rp3034
(lp3035
S'http://www.nola.com/politics/index.ssf/page/president_poll_daily_tracker.html'
p3036
aS'https://luc.id/2016-presidential-tracker/'
p3037
aS'http://www.nola.com/politics/index.ssf/page/president_poll_daily_tracker.html'
p3038
asg1
(g2
(S'S89'
p3039
I0
I1
tp3040
Rp3041
(I3
S'|'
p3042
NNNI89
I1
I0
tp3043
bS'http://www.breitbart.com/big-government/2016/09/01/la-times-poll-trump-45-3-clinton-41-9/'
p3044
tp3045
Rp3046
(lp3047
S'http://cesrusc.org/election/'
p3048
aS'http://cesrusc.org/election/'
p3049
asg1
(g2
(S'S117'
p3050
I0
I1
tp3051
Rp3052
(I3
S'|'
p3053
NNNI117
I1
I0
tp3054
bS'http://www.mediaite.com/online/poll-trump-leads-clinton-among-non-college-educated-white-men-by-a-whopping-59-points/'
p3055
tp3056
Rp3057
(lp3058
S'http://abcnews.go.com/Politics/clinton-trump-race-narrows-doorstep-debates-poll/story?id=42313593'
p3059
asg1
(g2
(S'S111'
p3060
I0
I1
tp3061
Rp3062
(I3
S'|'
p3063
NNNI111
I1
I0
tp3064
bS'http://www.investors.com/politics/clintons-lead-shrinks-to-1-point-as-voters-react-to-the-fbis-email-bombshell/'
p3065
tp3066
Rp3067
(lp3068
S'http://www.investors.com/politics/ibd-tipp-presidential-election-poll/'
p3069
aS'http://www.investors.com/politics/ibd-tipp-presidential-election-poll/'
p3070
asg1
(g2
(S'S107'
p3071
I0
I1
tp3072
Rp3073
(I3
S'|'
p3074
NNNI107
I1
I0
tp3075
bS'http://www.cbsnews.com/news/2016-election-by-the-numbers-one-month-out-is-hillary-clinton-headed-for-a-win/'
p3076
tp3077
Rp3078
(lp3079
S'http://www.cbsnews.com/news/hillary-clinton-edges-ahead-of-donald-trump-after-first-presidential-debate-hofstra-2016-cbs-nyt-poll/'
p3080
aS'http://www.prri.org/wp-content/uploads/2016/10/PRRIThe-Atlantic-Survey-Topline-Oct.-9.pdf'
p3081
aS'https://www.scribd.com/document/327007811/NBC-News-SurveyMonkey-Toplines-and-Methodology-10-3-10-9'
p3082
asg1
(g2
(S'S110'
p3083
I0
I1
tp3084
Rp3085
(I3
S'|'
p3086
NNNI110
I1
I0
tp3087
bS'http://www.investors.com/politics/trump-leads-clinton-by-one-point-going-into-debate-in-ibdtipp-tracking-poll/'
p3088
tp3089
Rp3090
(lp3091
S'http://www.investors.com/politics/ibd-tipp-presidential-election-poll/'
p3092
asg1
(g2
(S'S78'
p3093
I0
I1
tp3094
Rp3095
(I3
S'|'
p3096
NNNI78
I1
I0
tp3097
bS'http://www.politico.com/story/2016/09/gary-johnson-presidential-debates-227654'
p3098
tp3099
Rp3100
(lp3101
S'http://www.foxnews.com/politics/interactive/2016/08/31/fox-news-poll-aug-31-2016/'
p3102
asg1
(g2
(S'S110'
p3103
I0
I1
tp3104
Rp3105
(I3
S'|'
p3106
NNNI110
I1
I0
tp3107
bS'http://www.metro.us/news/trump-gains-lead-over-clinton-just-a-week-before-election-day/zsJpka---FnONugv17RF9s/'
p3108
tp3109
Rp3110
(lp3111
S'http://www.langerresearch.com/wp-content/uploads/1184a102016ElectionTrackingNo10.pdf'
p3112
asg1
(g2
(S'S149'
p3113
I0
I1
tp3114
Rp3115
(I3
S'|'
p3116
NNNI149
I1
I0
tp3117
bS'http://www.breitbart.com/2016-presidential-race/2016/09/26/poll-trump-leads-clinton-76-percent-to-17-percent-among-white-men-without-college-degrees/'
p3118
tp3119
Rp3120
(lp3121
S'http://abcnews.go.com/Politics/clinton-trump-race-narrows-doorstep-debates-poll/story?id=42313593'
p3122
asg1
(g2
(S'S105'
p3123
I0
I1
tp3124
Rp3125
(I3
S'|'
p3126
NNNI105
I1
I0
tp3127
bS'http://www.foxnews.com/politics/2016/10/28/breaking-fbi-reopens-investigation-into-clinton-email-use.html'
p3128
tp3129
Rp3130
(lp3131
S'http://www.investors.com/politics/ibd-tipp-presidential-election-poll/'
p3132
aS'http://www.foxnews.com/politics/interactive/2016/10/26/fox-news-poll-october-26-2016/'
p3133
aS'http://www.people-press.org/2016/10/27/as-election-nears-voters-divided-over-democracy-and-respect/'
p3134
aS'http://fm.cnbc.com/applications/cnbc.com/resources/editorialfiles/2016/10/27/survey.pdf'
p3135
aS'http://www.investors.com/politics/ibd-tipp-presidential-election-poll/'
p3136
aS'http://www.foxnews.com/politics/interactive/2016/10/26/fox-news-poll-october-26-2016/'
p3137
aS'http://www.people-press.org/2016/10/27/as-election-nears-voters-divided-over-democracy-and-respect/'
p3138
aS'http://fm.cnbc.com/applications/cnbc.com/resources/editorialfiles/2016/10/27/survey.pdf'
p3139
asg1
(g2
(S'S128'
p3140
I0
I1
tp3141
Rp3142
(I3
S'|'
p3143
NNNI128
I1
I0
tp3144
bS'http://www.breitbart.com/2016-presidential-race/2016/09/18/poll-trump-los-angeles-times-reaches-20-1-support-among-black-voters/'
p3145
tp3146
Rp3147
(lp3148
S'http://www.latimes.com/politics/'
p3149
asg1
(g2
(S'S121'
p3150
I0
I1
tp3151
Rp3152
(I3
S'|'
p3153
NNNI121
I1
I0
tp3154
bS'http://m.townhall.com/tipsheet/mattvespa/2016/09/04/dead-heat-clinton-drops-again-trump-within-two-points-of-her-n2213917'
p3155
tp3156
Rp3157
(lp3158
S'https://morningconsult.com/2016/09/04/trumps-immigration-stance-isnt-hurting/'
p3159
asg1
(g2
(S'S99'
p3160
I0
I1
tp3161
Rp3162
(I3
S'|'
p3163
NNNI99
I1
I0
tp3164
bS'http://hotair.com/archives/2016/08/06/more-on-the-reutersipsos-poll-showing-hillarys-lead-slipping/'
p3165
tp3166
Rp3167
(lp3168
S'http://www.latimes.com/politics/'
p3169
asg1
(g2
(S'S121'
p3170
I0
I1
tp3171
Rp3172
(I3
S'|'
p3173
NNNI121
I1
I0
tp3174
bS'http://www.nytimes.com/2016/10/18/upshot/fewer-polls-this-year-but-they-point-in-same-direction-a-clear-clinton-lead.html'
p3175
tp3176
Rp3177
(lp3178
S'http://www.nbcnews.com/politics/first-read/clinton-holds-11-point-national-lead-over-trump-nbc-wsj-n666986'
p3179
as.