(dp0
S''
p1
I3
sS'http://big.assets.huffingtonpost.com/NCSTATEWIDE.pdf'
p2
I0
sS'http://www.cbsnews.com/news/five-days-to-go-the-presidential-race-tightens-cbsnyt-poll/'
p3
I12
sS'http://www.rasmussenreports.com/public_content/politics/elections/election_2016/white_house_watch_nov7'
p4
I2
sS'http://www.rasmussenreports.com/public_content/politics/elections/election_2016/white_house_watch_nov4'
p5
I1
sS'http://www.rasmussenreports.com/public_content/politics/elections/election_2016/white_house_watch_nov2'
p6
I0
sS'http://www.rasmussenreports.com/public_content/politics/elections/election_2016/white_house_watch_nov3'
p7
I7
sS'http://www.rasmussenreports.com/public_content/politics/elections/election_2016/white_house_watch_nov1'
p8
I2
sS'https://d25d2506sfb94s.cloudfront.net/cumulus_uploads/document/a27478dsek/econToplines.pdf'
p9
I0
sS'http://www.insightswest.com/news/clinton-leads-trump-republicans-reject-changing-their-nominee/'
p10
I0
sS'http://www.realclearpolitics.com/docs/2016/Gravis_Oct_24th_2016.pdf'
p11
I0
sS'https://luc.id/wp-content/uploads/2016/11/Nevada-Battleground-Results.pdf'
p12
I1
sS'http://kansashealth.org/sites/default/files/ZogbyPollResults.pdf'
p13
I1
sS'http://www.monmouth.edu/assets/0/32212254770/32212254991/32212254992/32212254994/32212254995/30064771087/7714a05b-515f-4ad3-bdaa-e72a6e5f8e61.pdf'
p14
I0
sS'http://www.rasmussenreports.com/public_content/politics/elections/election_2016/white_house_watch_oct31'
p15
I3
sS'http://www.langerresearch.com/wp-content/uploads/1184a62016ElectionTrackingNo-6.pdf'
p16
I0
sS'https://www.nccivitas.org/2016/civitas-releases-post-conventions-survey-of-north-carolina-voters/'
p17
I4
sS'https://assets.bwbx.io/documents/users/iqjWHBFdfxIU/rdISbD8Bk4tA/v0'
p18
I3
sS'http://www.latimes.com/politics/la-na-pol-usc-lat-tracking-poll-20160705-snap-story.html'
p19
I0
sS'http://winwithjmc.com/wp-content/uploads/2016/09/Georgia-Executive-Summary-Poll-2.pdf'
p20
I0
sS'http://www.rasmussenreports.com/public_content/politics/elections/election_2016/trump_41_clinton_39'
p21
I0
sS'http://www.csus.edu/isr/calspeaks/surveys/october%202016%20election%20topline.pdf'
p22
I3
sS'http://www.foxnews.com/politics/interactive/2016/10/26/fox-news-poll-october-26-2016/'
p23
I22
sS'https://www.scribd.com/document/329404956/CBS-News-Battleground-Tracker-North-Carolina-Oct-30-201'
p24
I0
sS'http://www.ktnv.com/news/ralston/new-poll-nevada-races-for-president-senate-remain-close'
p25
I3
sS'http://www.realclearpolitics.com/docs/2016/NM_Statewide_PressRelease_Nov6.pdf'
p26
I0
sS'http://ap-gfkpoll.com/main/wp-content/uploads/2016/07/July-2016-AP-GfK-Poll-Posted-Topline_Clinton_Trump.pdf'
p27
I0
sS'http://www.uno.edu/cola/political-science/documents/2016-Louisiana-Survey-Report.pdf'
p28
I0
sS'http://wfirnews.com/local-news/poll-clinton-maintains-lead-in-virginia-first-debate-favored-clinton-but-race-mostly-static'
p29
I0
sS'http://www.americansunitedforchange.org/page/-/PennsylvaniaResults616.pdf'
p30
I0
sS'http://cnu.edu/cpp/pdf/oct%2028%202016%20report-final.pdf'
p31
I0
sS'https://d25d2506sfb94s.cloudfront.net/cumulus_uploads/document/6pjlgkhppd/VA_ForRelease_20160925.pdf'
p32
I2
sS'http://www.upi.com/Top_News/US/2016/09/07/UPICVoter-poll-Hillary-Clinton-has-2-point-lead-over-Donald-Trump/6771473265320/'
p33
I0
sS'https://morningconsult.com/2016/04/bernie-sanders-hillary-clinton-democratic-presidential-poll/'
p34
I0
sS'http://www.publicpolicypolling.com/pdf/2015/PPP_Release_NH_10816.pdf'
p35
I1
sS'http://www.realclearpolitics.com/docs/2016/PPP_NC_Oct_24_2016.pdf'
p36
I0
sS'http://projects.fivethirtyeight.com/polls/20160924_NM_1.pdf'
p37
I0
sS"http://news.hamptonu.edu/release/Hampton-University's-CPP-Latest-Poll-Shows-VA-Voter-Shift-from-Clinton-to-Trump-Post-Email-Investigation"
p38
I0
sS'https://d25d2506sfb94s.cloudfront.net/cumulus_uploads/document/k0xhlkdlcy/econTabReport.pdf'
p39
I0
sS'http://www.rasmussenreports.com/platinum/political_tracking_crosstabs/august_2016/crosstabs_election_2016_white_house_watch_august_9_10_2016'
p40
I0
sS'http://www.kgw.com/news/politics/elections/kgworegonian-poll-measure-97-a-virtual-tie-clinton-brown-lead/337615312'
p41
I1
sS'http://www.realclearpolitics.com/docs/2016/OCT_Emerson.pdf'
p42
I4
sS'http://www.nbcnews.com/meet-the-press/polls-clinton-leads-trump-north-carolina-dead-heat-florida-n675246'
p43
I16
sS'http://www.highpoint.edu/blog/2016/03/hpu-poll-trump-and-clinton-lead-nc-primaries/'
p44
I1
sS'http://media.wix.com/ugd/3bebb2_e6ef41f2113347feaedca7d88762c6f3.pdf'
p45
I0
sS'http://www.langerresearch.com/wp-content/uploads/1184a92016ElectionTrackingNo9.pdf'
p46
I4
sS'https://s3.amazonaws.com/redoakstrategic-gcs/RedOakStrategic_NationalGCSSurvey_Oct32016.pdf'
p47
I1
sS'https://morningconsult.com/2016/10/11/voters-say-clinton-won-debate-trumps-support-remains-stable/'
p48
I0
sS'http://i2.cdn.turner.com/cnn/2016/images/07/17/rel8a.-.2016.pdf'
p49
I1
sS'https://politicalwire.com/2016/08/24/state-poll-roundup-wednesday-3/'
p50
I0
sS'http://www.democracycorps.com/attachments/article/1051/Dcor_Oct%20National_FQ_10.24.2016_ealert.pdf'
p51
I0
sS'http://www.nbcnews.com/politics/2016-election/clinton-holds-steady-against-trump-campaign-enters-final-weeks-poll-n642931'
p52
I3
sS'http://www.breitbart.com/2016-presidential-race/2016/11/04/exclusive-breitbartgravis-colorado-poll-clinton-trump-in-40-40-dead-heat/'
p53
I1
sS'http://www.upi.com/Top_News/US/2016/10/08/UPICVoter-poll-Clinton-retakes-lead-with-post-debate-bump/2941475947664/'
p54
I0
sS'http://www.realclearpolitics.com/docs/2016/Gravis_PA_October_31st_2016.pdf'
p55
I1
sS'https://www.siena.edu/assets/files/news/SNY_October_2016_Poll_Release_--_FINAL1853.pdf'
p56
I0
sS'http://big.assets.huffingtonpost.com/FLSTATEWIDE.pdf'
p57
I2
sS'http://www.publicpolicypolling.com/pdf/2015/PPP_Release_FL_104161.pdf'
p58
I6
sS'http://www.fandm.edu/uploads/files/913809798323927231-f-m-poll-release-october-2016.pdf'
p59
I0
sS'https://www.qu.edu/images/polling/us/us09142016_U27xtpb.pdf'
p60
I4
sS'http://www.nbc12.com/story/33645067/poll-clinton-leading-trump-by-6-points-in-va'
p61
I0
sS'https://www.qu.edu/images/polling/ps/ps10172016_Sub62fgv.pdf'
p62
I9
sS'http://harperpolling.com/polls/pennsylvania-statewide-poll--11-2-'
p63
I0
sS'http://www.foxnews.com/politics/interactive/2016/02/18/fox-news-poll-national-presidential-race-february-18-2016/'
p64
I0
sS'http://www.latimes.com/politics/la-na-pol-california-presidential-poll-20160912-snap-story.html'
p65
I1
sS'https://icitizen.com/insights/oregon-poll-results-september-2016/'
p66
I1
sS'http://www.upi.com/Top_News/US/2016/10/14/UPICVoter-poll-Hillary-Clinton-leads-Donald-Trump-by-5-points/5771476450376/?spt=sec&or=tn'
p67
I0
sS'http://www.usatoday.com/story/news/politics/elections/2016/10/26/poll-clinton-builds-leads-nation-worried-election-day-violence-trump/92712708/'
p68
I24
sS'http://gravismarketing.com/polling-and-market-research/current-michigan-polling/'
p69
I0
sS'http://americanresearchgroup.com/pres2016/na16-4.html'
p70
I0
sS'http://projects.fivethirtyeight.com/polls/20161107_50_1.pdf'
p71
I0
sS'http://www.cbsnews.com/news/campaign-2016-did-hillary-clinton-get-a-post-convention-bump/'
p72
I4
sS'http://midnightsunak.com/wp-content/uploads/2016/09/Memo-AK-Senator-Murkowski-Aug2016.pdf'
p73
I0
sS'https://morningconsult.com/2016/09/11/presidential-race-near-toss-among-likely-voters/'
p74
I7
sS'http://www.politico.com/blogs/swing-states-2016-election/2016/08/poll-clinton-leads-trump-by-9-in-florida-227057'
p75
I5
sS'http://www.ktnv.com/news/ralston/heck-hanging-onto-lead-trump-falling-behind-in-new-gop-poll'
p76
I0
sS'https://www.scribd.com/document/330243723/NBC-News-SurveyMonkey-Toplines-and-Methodology-1031-11-6?secret_password=RZmAhM5A4ukrIpXPn0p8'
p77
I1
sS'http://www.mcclatchydc.com/news/politics-government/election/article112635048.html'
p78
I11
sS'http://www.realclearpolitics.com/docs/2016/2016_Reuters_Tracking_-_Core_Political_Daily_11.05_.16_.pdf'
p79
I0
sS'http://idahopoliticsweekly.com/politics/1218-Bob%20Bernick'
p80
I0
sS'http://projects.fivethirtyeight.com/polls/20161104_NM_1.pdf'
p81
I0
sS'http://files.constantcontact.com/9c83fb30501/a28d624b-bd7e-46a7-a024-573e184bd3bb.pdf'
p82
I9
sS'http://www.foxnews.com/politics/interactive/2016/09/15/fox-news-poll-sept-15-2016/'
p83
I3
sS'http://www.upi.com/Top_News/US/2016/08/05/UPICVoter-poll-Clinton-continues-gaining-ground-at-Trumps-expense/1551470423424/'
p84
I0
sS'https://www.scribd.com/document/330037738/Colorado-November-3-2016-v'
p85
I0
sS'http://www.people-press.org/files/2016/09/09-21-16-campaign-release.pdf'
p86
I0
sS'http://luc.id/wp-content/uploads/2016/11/Louisiana-Battleground-Results.pdf'
p87
I0
sS'http://www.fox2detroit.com/news/local-news/212560344-story'
p88
I2
sS'http://cnu.edu/cpp/pdf/nov%207%202016%20report-final.pdf'
p89
I4
sS'http://talkbusiness.net/2016/06/tbp-hendrix-poll-trump-holds-lead-over-clinton-in-arkansas/'
p90
I0
sS'http://www.roanoke.edu/Documents/rcpoll/RCPoll.Jan2016.Topline_Exit%20poll.pdf'
p91
I0
sS'https://www.scribd.com/document/329155539/Saguaro-Strategies-General-Election-Survey-October-22-24'
p92
I1
sS'http://www.publicpolicypolling.com/pdf/PPP_Release_FL_607161.pdf'
p93
I2
sS'http://big.assets.huffingtonpost.com/TEGNA-WXIA-SUSA_Poll.pdf'
p94
I0
sS'https://www.monmouth.edu/polling-institute/reports/MonmouthPoll_WI_101916/'
p95
I9
sS'http://www.surveyusa.com/client/PollReport.aspx?g=5d56f70b-d2d2-4f08-935b-d812fdc2b5d7'
p96
I0
sS'http://opinionsavvy.com/2016/08/18/poll-dead-heat-in-georgia/'
p97
I0
sS'https://morningconsult.com/2016/04/donald-trump-polling-abortion-comments/'
p98
I0
sS'http://www.publicpolicypolling.com/pdf/2015/PPP_Release_SC_111715.pdf'
p99
I0
sS'http://www.realclearpolitics.com/docs/2016/Gravis_Nevada_May_2016.pdf'
p100
I1
sS'http://magellanstrategies.com/colorado-2016-presidential-voter-opinion-survey-nov-3rd/'
p101
I0
sS'http://morningconsult.com/wp-content/uploads/2015/11/MC-Tracking-Poll-Toplines-November-13-16-2015.pdf'
p102
I0
sS'http://www.prri.org/research/prri-brookings-october-19-2016-presidential-election-horserace-clinton-trump/'
p103
I4
sS'http://www.wsbtv.com/'
p104
I0
sS'https://s3.amazonaws.com/redoakstrategic-gcs/RedOakStrategic_NationalGCSSurvey_Sept192016.pdf'
p105
I0
sS'http://www.reuters.com/statesofthenation/'
p106
I17
sS'http://www.realclearpolitics.com/docs/2016/Remington_Research_Florida_October_31_2016.pdf'
p107
I1
sS'http://www.upi.com/Top_News/US/2016/10/05/UPICVoter-poll-Donald-Trumps-lead-over-Hillary-Clinton-tightens-to-less-than-a-point/8461475677645/?spt=sec&or=tn'
p108
I0
sS'http://morningconsult.com/2016/02/poll-cruz-rubio-gain-heading-to-new-hampshire/'
p109
I0
sS'http://www.loras.edu/news/clinton-ahead-wisconsin-johnson-edge-loras-poll-finds/'
p110
I0
sS'http://us12.campaign-archive2.com/?u=5a280d25318f2afe3f311adb6&id=ff56065af6'
p111
I0
sS'http://www.field.com/fieldpollonline/subscribers/Rls2537.pdf'
p112
I0
sS'https://www.qu.edu/news-and-events/quinnipiac-university-poll/2016-presidential-swing-state-polls/release-detail?ReleaseID=2381'
p113
I3
sS'https://www.qu.edu/news-and-events/quinnipiac-university-poll/2016-presidential-swing-state-polls/release-detail?ReleaseID=2384'
p114
I17
sS'http://www.socialsecurityworks.org/wp-content/uploads/2016/10/NationalResults.pdf'
p115
I0
sS'http://www.cbsnews.com/news/donald-trump-and-hillary-clinton-viewed-unfavorably-by-majority-cbsnyt-poll/'
p116
I0
sS'https://www.qu.edu/news-and-events/quinnipiac-university-poll/2016-presidential-swing-state-polls/release-detail?ReleaseID=2388'
p117
I19
sS'http://www.nbcnews.com/politics/2016-election/poll-no-post-convention-bounce-donald-trump-n616426'
p118
I1
sS'http://www.13newsnow.com/news/politics/elections/poll-clinton-leads-trump-in-virginia/326147993'
p119
I0
sS'http://trib.com/news/state-and-regional/govt-and-politics/poll-finds-trump-cheney-way-ahead-in-wyoming/article_b9a2ba24-15f9-5051-92d4-33a4ef794153.html'
p120
I0
sS'http://www.marketplace.org/2016/10/13/economy/americans-economic-anxiety-has-reached-new-high'
p121
I0
sS'http://www.postandcourier.com/20160913/160919767/trump-leads-in-new-sc-gop-poll-out-today'
p122
I0
sS'https://icitizen.com/insights/florida-poll-results-august-2016/'
p123
I0
sS'http://weneednine.org/wp-content/uploads/2016/07/PAToplines1.pdf'
p124
I1
sS'http://www.wsbtv.com/news/politics/clinton-trump-deadlocked-in-latest-georgia-poll/415167092'
p125
I0
sS'http://www.realclearpolitics.com/docs/2016/FINAL_NC_Marginals.pdf'
p126
I3
sS'http://harperpolling.com/polls/colorado-general-election-poll'
p127
I0
sS'http://www.protectmofamilies.com/images/15290/Aug2016MissouriPresidentResultsPPP_PMF.pdf'
p128
I0
sS'https://www.monmouth.edu/polling-institute/reports/MonmouthPoll_UT_110316/'
p129
I5
sS'https://www.scribd.com/document/329707080/Saguaro-Strategies-Arizona-Survey-October-29-31'
p130
I0
sS'http://www.snc.edu/sri/docs/2016/201604wissurvey.pdf'
p131
I1
sS'http://www.realclearpolitics.com/docs/2016/MI_8-16_FOX_2_Detroit_-_Mitchell_Poll_of_MI_Press_Clinton_v_Trump_8-16-16_A.pdf'
p132
I0
sS'http://mrgmi.com/2016/07/michigan-poll-trump-trails-clinton-by-five-percent-heading-into-gop-convention/'
p133
I0
sS'http://www.rasmussenreports.com/public_content/politics/elections/election_2016/white_house_watch_oct20'
p134
I4
sS'http://www.rasmussenreports.com/public_content/politics/elections/election_2016/white_house_watch_oct21'
p135
I11
sS'http://www.rasmussenreports.com/public_content/politics/elections/election_2016/white_house_watch_oct26'
p136
I2
sS'http://www.rasmussenreports.com/public_content/politics/elections/election_2016/white_house_watch_oct27'
p137
I1
sS'http://www.rasmussenreports.com/public_content/politics/elections/election_2016/white_house_watch_oct24'
p138
I1
sS'http://www.rasmussenreports.com/public_content/politics/elections/election_2016/white_house_watch_oct25'
p139
I2
sS'http://www.rasmussenreports.com/public_content/politics/elections/election_2016/white_house_watch_oct28'
p140
I0
sS'http://www.upi.com/Top_News/US/2016/10/24/UPICVoter-poll-Hillary-Clintons-lead-over-Donald-Trump-narrows-to-307-points/7031477307768/?spt=sec&or=tn'
p141
I0
sS'http://www.suffolk.edu/news/67667.php'
p142
I2
sS'http://soonerpoll.com/oklahoman-trump-solidifies-lead-in-oklahoma-poll-shows/?utm_content=buffer9d4e9&utm_medium=social&utm_source=twitter.com&utm_campaign=buffer'
p143
I0
sS'http://opinionsavvy.com/2016/10/21/poll-clinton-increases-lead-in-florida/'
p144
I3
sS'http://www.publicpolicypolling.com/pdf/2015/PPP_Release_BattlegroundStates_92916.pdf'
p145
I8
sS'http://abcnews.go.com/Politics/2016-race-stays-47-43-sunday-poll/story?id=43364234&mc_cid=3db3f85085&mc_eid=9430bf74bd'
p146
I0
sS'http://projects.fivethirtyeight.com/polls/20161108_National_2.pdf'
p147
I0
sS'http://www.monmouth.edu/polling-institute/reports/MonmouthPoll_NV_091416/'
p148
I5
sS'http://www.kentucky.com/news/politics-government/article89192652.html'
p149
I0
sS'http://www.flchamber.com/new-florida-chamber-of-commerce-statewide-poll-shows-presidential-race-too-close-to-call-in-florida/'
p150
I3
sS'http://media.nbcwashington.com/documents/NBC4_Marist+Poll_Maryland_+Presidential_Annotated+Questionnaire_April+2016.pdf'
p151
I0
sS'http://floridapolitics.com/archives/224434-hillary-clinton-6-point-lead-donald-trump-new-florida-poll'
p152
I0
sS'http://www.realclearpolitics.com/docs/2016/Emerson_Idaho_Oct_25th_2016.pdf'
p153
I0
sS'http://www.tennessean.com/story/news/politics/2016/10/06/vanderbilt-poll-trump-leads-clinton-11-points-tennessee/91628616/'
p154
I1
sS'http://msnbcmedia.msn.com/i/MSNBC/Sections/A_Politics/15564%20NBCWSJ%20December%20Poll%20(AM%2012-14-15%20Release).pdf'
p155
I0
sS'https://www.scribd.com/document/326274653/NBC-News-SurveyMonkey-Toplines-and-Methodology-925-102?secret_password=Amlox28R6VL23C3oHhHA'
p156
I1
sS'https://s3.amazonaws.com/redoakstrategic-gcs/RedOakStrategic_NationalGCSSurvey_Oct182016.pdf'
p157
I1
sS'http://big.assets.huffingtonpost.com/PASTATEWIDE.pdf'
p158
I1
sS'https://www.scribd.com/document/318010091/NBC-News-SurveyMonkey-Toplines-and-Methodology-7-4-7-10'
p159
I0
sS'http://www.foxnews.com/politics/interactive/2015/11/18/fox-news-poll-trump-sanders-lead-respective-primaries-in-new-hampshire/'
p160
I0
sS'https://d25d2506sfb94s.cloudfront.net/cumulus_uploads/document/fs009vw1xv/econTabReport.pdf'
p161
I1
sS'https://gqrr.app.box.com/s/57r0g708p8w2w1l77g3uv38j9uli5ght'
p162
I0
sS'https://drive.google.com/file/d/0B4lhKxf9pMitMnpma3JKTjh4aGs/view'
p163
I0
sS'http://www.pressherald.com/2016/09/25/maine-voters-appear-poised-to-render-historic-electoral-college-vote-split-in-2016-election/'
p164
I7
sS'https://mgtvwhtm.files.wordpress.com/2016/10/toplines-statewideabc27-oct16.pdf'
p165
I1
sS'http://www.monmouth.edu/polling-institute/reports/MonmouthPoll_FL_092016/'
p166
I6
sS'http://www.rasmussenreports.com/public_content/politics/elections/election_2016/libertarian_johnson_doesn_t_change_presidential_outcome_so_far'
p167
I0
sS'http://www.theadvocate.com/baton_rouge/news/politics/elections/article_b012ee14-918e-11e6-a85f-5342786abb03.html'
p168
I0
sS'http://www.realclearpolitics.com/docs/2016/Remington_NV_Oct_25th_2016.pdf'
p169
I1
sS'http://pilotonline.com/news/government/nation/new-poll-showed-clinton-strong-in-virginia-population-centers/article_eb37ad6f-c5ef-5578-b13e-3bd490f10f78.html'
p170
I0
sS'https://drive.google.com/file/d/0B4lhKxf9pMitUjZhbDJwVGQteTA/view'
p171
I1
sS'https://morningconsult.com/wp-content/uploads/2016/11/MCModeStudyFinalToplines.pdf'
p172
I1
sS'http://static.politico.com/8a/b1/6632d7e147899c4489dd14a84e17/161024-states-statewidetrack.pdf'
p173
I3
sS'https://www.washingtonpost.com/news/the-fix/wp/2016/11/02/tracking-poll-finds-race-tied-as-trump-opens-up-an-8-point-edge-on-honesty/'
p174
I13
sS'http://www.daytondailynews.com/news/national-govt--politics/poll-shows-race-for-ohio-close-volatile/5eOZa0M0OyT8ZAMdmdhKxM/'
p175
I0
sS'https://www.washingtonpost.com/local/md-politics/larry-hogans-approval-soars-buoyed-by-his-disavowal-of-donald-trump/2016/10/05/3e84b330-88de-11e6-b24f-a7f89eb68887_story.html'
p176
I2
sS'http://www.pressherald.com/2016/06/25/data-favorability-ratings-and-likely-voters/'
p177
I0
sS'http://media.wix.com/ugd/3bebb2_a087ef7328134746b90ffd87f80c439e.pdf'
p178
I0
sS'http://mprc.me/research/0916_presidential.pdf'
p179
I1
sS'http://www.stltoday.com/news/local/govt-and-politics/trump-leads-clinton-blunt-kander-a-virtual-tie-in-missouri/article_a4a48a47-485f-5e9a-b6f6-1dba7c7deb48.html'
p180
I6
sS'http://dfw.cbslocal.com/2016/08/11/trump-leads-texas-in-ktvt-cbs-11dixie-strategies-poll/?e=nqnAj57idgC1eA'
p181
I2
sS'https://cola.unh.edu/sites/cola.unh.edu/files/research_publications/gsp2016_spring_preselect042116.pdf'
p182
I0
sS'https://www.scribd.com/doc/315840399/Toplines-CBS-News-poll-Clinton-Trump'
p183
I0
sS'http://www.strategies360.com/wp-content/uploads/2015/12/15-340-AZ-Public-Poll-Toplines.pdf'
p184
I0
sS'http://mclaughlinonline.com/pols/wp-content/uploads/2016/03/National-Omnibus-3-23-16-Topline-Public.pdf'
p185
I0
sS'https://drive.google.com/file/d/0B4lhKxf9pMitYTV0T1hDMnpDVkU/view'
p186
I0
sS'http://cnu.edu/cpp/pdf/oct%2016%202016%20report-final.pdf'
p187
I6
sS'http://www.politico.com/blogs/swing-states-2016-election/2016/07/poll-nevada-clinton-trump-225367'
p188
I0
sS'http://www.wsj.com/articles/new-poll-finds-close-race-in-georgia-1478206826'
p189
I1
sS'https://www.scribd.com/document/330329677/Michigan-November-5-2016-v1-'
p190
I0
sS'https://www.qu.edu/images/polling/us/us06292016_Utwkv93x.pdf'
p191
I0
sS'http://email.connectstrategic.com/t/j-73630F4BD52B12D8'
p192
I0
sS'http://www.foxnews.com/politics/2016/05/18/fox-news-poll-clintons-negatives-surpass-trumps.html'
p193
I0
sS'http://docs.hamptonu.edu/student/Survey_of_805_Likely_Voters_-_Virginia_Statewide_Survey_ndash_Presidential_Poll_2016_ndash_July_2016_20160715165247.pdf'
p194
I0
sS'https://www.scribd.com/doc/314520082/NBC-News-WSJ-Marist-California-Poll-Annotated-Questionnaire-June-2016'
p195
I0
sS'https://www.scribd.com/document/322977203/CBS-News-Battleground-Tracker-North-Carolina-September-4'
p196
I0
sS'https://www.texastribune.org/2016/10/27/uttt-poll-trump-holds-narrow-lead-over-clinton/'
p197
I12
sS'http://www.foxnews.com/politics/2016/10/26/fox-news-poll-clinton-leads-trump-by-three-points.html'
p198
I18
sS'http://www.breitbart.com/2016-presidential-race/2016/11/07/exclusive-breitbart-gravis-polls-swing-state-roundup/'
p199
I4
sS'https://today.yougov.com/news/2016/08/09/yougoveconomist-poll-august-6-9-2016/'
p200
I0
sS'http://www.nbcnews.com/politics/2016-election/polls-clinton-ahead-florida-pennsylvania-n662076'
p201
I5
sS'http://polls.saintleo.edu/trump-gains-while-carson-declines-in-new-saint-leo-university-national-political-poll/'
p202
I0
sS'https://www.scribd.com/document/326562582/National-Poll-October-4-2016-v3-1'
p203
I0
sS'https://www.scribd.com/document/330033616/Pennsylvania-November-3-2016-v2-'
p204
I0
sS'https://morningconsult.com/2016/03/bernie-sanders-hillary-clinton-donald-trump-ted-cruz-presidential-polling/'
p205
I0
sS'http://www.adn.com/politics/article/adn-poll-alaskans-trump-sanders-president/2016/01/24/'
p206
I1
sS'https://www.savethechildrenactionnetwork.org/wp-content/uploads/2016/10/SCAN-NH-General-Election-public-100616.pdf'
p207
I0
sS'https://www.siena.edu/assets/files/news/PA_oct_release_final261.pdf'
p208
I0
sS'https://morningconsult.com/2016/07/11/voters-largely-unmoved-potential-vp-picks-poll-shows/'
p209
I0
sS'http://www.upi.com/Top_News/US/2016/10/19/UPICVoter-poll-Clinton-leads-Trump-by-488-points-going-into-final-debate/5031476878558/'
p210
I0
sS'http://www.realclearpolitics.com/docs/2016/Remington_Research_Nevada_November.pdf'
p211
I0
sS'http://www.democracycorps.com/attachments/article/1029/Dcor_March%20National_Memo_4.1.2016_FOR%20RELEASE.pdf?ct=t%28WV+March+National+Poll+Release%29'
p212
I0
sS'http://www.breitbart.com/big-government/2016/10/27/exclusive-statistical-tie-latest-breitbartgravis-poll-shows-donald-trump-closes-gap-less-two-weeks-left/'
p213
I7
sS'http://www.nytimes.com/interactive/2016/10/27/upshot/pennsylvania-poll.html'
p214
I6
sS'http://www.ktnv.com/news/political/ktnvrasmussen-poll-clinton-pulls-ahead-of-trump-in-nevada-as-early-voting-starts'
p215
I2
sS'http://www.surveyusa.com/client/PollReport.aspx?g=0e1d48a5-2698-448f-8f7a-fa2c92996543'
p216
I0
sS'https://poll.qu.edu/2016-presidential-swing-state-polls/release-detail?ReleaseID=2401'
p217
I12
sS'http://weneednine.org/wp-content/uploads/2016/07/NHToplines1.pdf'
p218
I0
sS'http://www.publicpolicypolling.com/pdf/2015/PPP_Release_OH_72516.pdf'
p219
I1
sS'http://www.surveyusa.com/client/PollReport.aspx?g=088d0066-02dc-4faa-affe-a321d1390f73&utm_source=twitterfeed&utm_medium=twitter'
p220
I0
sS'http://big.assets.huffingtonpost.com/NVSTATEWIDE.pdf'
p221
I0
sS'http://www.breitbart.com/2016-presidential-race/2016/08/14/breitbartgravis-poll-hillary-clinton-leads-donald-trump-42-to-37/'
p222
I6
sS'http://www.monmouth.edu/polling-institute/reports/MonmouthPoll_US_092616/'
p223
I5
sS'www.realclearpolitics.com/docs/2016/FAU_October_2016.pdf'
p224
I0
sS'https://morningconsult.com/2016/03/paul-ryan-general-election-polling-hillary-clinton-bernie-sanders/'
p225
I0
sS'http://www.freep.com/story/news/politics/2016/08/05/poll-clinton-opens-up-11-point-lead-trump-michigan/88293726/'
p226
I3
sS'http://www.hoover.org/press-releases/hoover-institution-golden-state-poll-november2016'
p227
I0
sS'http://moscout.com/wp-content/uploads/2016/03/MOScout-Weekly-Poll-March-5.pdf'
p228
I1
sS'http://www.surveyusa.com/client/PollReport.aspx?g=ce17282d-d070-493a-8bcd-ee02ca9016e6'
p229
I4
sS'https://today.yougov.com/news/2016/10/19/yougoveconomist-poll-october-15-18-2016/'
p230
I3
sS'http://www.nbcnews.com/politics/2016-election/poll-clinton-support-spikes-following-democratic-convention-n621071'
p231
I4
sS'https://poll.qu.edu/images/polling/ps/ps11072016.pdf/'
p232
I14
sS'http://www.nbcnews.com/storyline/2016-conventions/poll-clinton-keeps-5-point-lead-over-trump-heading-conventions-n610966'
p233
I0
sS'http://zogbyanalytics.com/news/747-ohio-likely-voters-choose-clinton-and-sanders-over-trump'
p234
I0
sS'http://www.realclearpolitics.com/docs/2016/Gravis_Colorado_October_13_2016.pdf'
p235
I2
sS'http://www.ksfy.com/content/news/Poll-Trump-Thune-hold-double-digit-leads-in-South-Dakota-398112241.html'
p236
I2
sS'http://polls.saintleo.edu/wp-content/uploads/2016/03/Saint-Leo-Poll-Report-March-2016-Part-1.pdf'
p237
I0
sS'http://opinionsavvy.com/wp-content/uploads/2016/10/OS-GA-General-10.20.16.pdf'
p238
I0
sS'http://www.quinnipiac.edu/images/polling/us/us02052016_Ust53w.pdf'
p239
I0
sS'http://media.wix.com/ugd/3bebb2_7e2146163ed04e60b05172ef8e530182.pdf'
p240
I0
sS'https://d25d2506sfb94s.cloudfront.net/cumulus_uploads/document/ehkbsotw61/CO_ForRelease_20160925.pdf'
p241
I1
sS'http://www.realclearpolitics.com/docs/2016/JMC_FL_Sept_2016.pdf'
p242
I2
sS'http://mtsupoll.org/2016/10/04/f2016pres/'
p243
I0
sS'http://www.nbcnews.com/politics/2016-election/poll-clinton-opens-double-digit-lead-over-trump-n625676'
p244
I4
sS'http://big.assets.huffingtonpost.com/Victory.Research.Illinois.10.18.16.pdf'
p245
I0
sS'http://www.gqrr.com/articles/2016/3/25/new-university-of-southern-california-dornsife-college-of-letters-arts-and-scienceslos-angeles-times-poll'
p246
I0
sS'http://polls.saintleo.edu/survey-florida-looks-like-it-will-support-clinton-for-president/'
p247
I5
sS'http://www.thestate.com/news/politics-government/article112299202.html'
p248
I0
sS'https://drive.google.com/file/d/0B4lhKxf9pMiteGplS1k1amdiVHc/view'
p249
I0
sS'http://www.suffolk.edu/documents/SUPRC/9_22_2016_marginals.pdf'
p250
I5
sS'http://media.wix.com/ugd/3bebb2_16b97664735d4325b018b7b608477434.pdf'
p251
I3
sS'http://www.foxnews.com/politics/interactive/2016/07/13/fox-news-poll-71316-clinton-tops-trump-by-7-points-in-virginia/'
p252
I0
sS'http://abcnews.go.com/Politics/trump-leads-clinton-point-poll-enthusiasm-declines/story?id=43199459'
p253
I28
sS'http://www.wbur.org/2016/05/18/wbur-poll-clinton-trump-new-hampshire'
p254
I1
sS'http://email.connectstrategic.com/t/j-5C5134BA69C80539'
p255
I0
sS'http://www.foxnews.com/politics/interactive/2015/11/20/fox-news-poll-2016-matchups-syrian-refugees/'
p256
I1
sS'http://big.assets.huffingtonpost.com/FSCFloridaPrimaryPreferencePoll02820162.pdf'
p257
I0
sS'http://www.upi.com/Top_News/US/2016/09/21/UPICVoter-poll-Hillary-Clinton-holds-118-lead-over-Donald-Trump/2301474469318/?spt=sec&or=tn'
p258
I0
sS'https://morningconsult.com/wp-content/uploads/2016/09/160915_crosstabs_trend_v1_LIKELYVOTERS_AD.pdf'
p259
I8
sS'https://www.scribd.com/document/324685567/ND-Pres-DFM-Research-Sept-2016'
p260
I0
sS'http://www.insightswest.com/news/clinton-is-ahead-of-trump-as-u-s-presidential-election-approaches/'
p261
I0
sS'http://www.surveyusa.com/client/PollReport.aspx?g=43152229-1c55-4feb-8b4d-50aeb48c36b1'
p262
I0
sS'https://cola.unh.edu/sites/cola.unh.edu/files/research_publications/gsp2016_winter_presgen022916.pdf'
p263
I0
sS'http://endcitizensunited.org/wp-content/uploads/2016/10/ECU-WI-poll-Oct19.pdf'
p264
I1
sS'http://www.nbcnews.com/politics/2016-election/poll-clinton-expands-lead-after-becoming-presumptive-nominee-n591531'
p265
I0
sS'http://i2.cdn.turner.com/cnn/2016/images/07/25/trump.clinton.poll.pdf'
p266
I2
sS'https://www.siena.edu/assets/files/news/SNY0816_Crosstabs_3987_081516.pdf'
p267
I0
sS'http://www.latimes.com/politics/'
p268
I20
sS'https://www.monmouth.edu/polling-institute/reports/MonmouthPoll_NH_102616/'
p269
I12
sS'https://d25d2506sfb94s.cloudfront.net/cumulus_uploads/document/z9xrsuzu2g/ForRelease_MI_20160717.pdf'
p270
I0
sS'https://www.unf.edu/coas/porl/2016_Florida_Fall_Statewide_Presidential_Poll.aspx'
p271
I2
sS'http://www.azcentral.com/story/news/politics/elections/2016/10/19/arizona-poll-hillary-clinton-donald-trump/92339110/'
p272
I20
sS'http://i2.cdn.turner.com/cnn/2016/images/05/04/rel6b.-.2016.general.pdf'
p273
I0
sS'http://www.prri.org/wp-content/uploads/2016/09/PRRI-RNS-Unaffiliated-Survey-Topline.pdf'
p274
I0
sS'http://www.quinnipiac.edu/images/polling/us/us02182016_Urpfd42.pdf'
p275
I0
sS'http://www.oann.com/pollflorida/'
p276
I0
sS'http://i2.cdn.turner.com/cnn/2016/images/03/09/reloh1ohio.pdf'
p277
I0
sS'http://utahpolicy.com/index.php/features/today-at-utah-policy/9193-'
p278
I0
sS'http://www.realclearpolitics.com/docs/2016/Zia_Poll_November_4th_2016.pdf'
p279
I1
sS'http://www.foxnews.com/politics/2016/04/10/fox-news-poll-trump-clinton-rule-empire-state.html'
p280
I0
sS'http://www.foxnews.com/politics/interactive/2016/06/29/fox-news-poll-june-2-2016/'
p281
I0
sS'http://assets.bwbx.io/documents/users/iqjWHBFdfxIU/r.f2qF2GAiq8/v0'
p282
I0
sS'https://gallery.mailchimp.com/5a280d25318f2afe3f311adb6/files/AZ_Statewide_LivePoll_Demographics_10_27.01.pdf'
p283
I0
sS'http://www.democracycorps.com/attachments/article/1037/Dcor_July%20National_E%20Alert_7.19.2016_final.pdf'
p284
I0
sS'http://themissouritimes.com/33365/poll-shows-republicans-koster-well/'
p285
I1
sS'http://endcitizensunited.org/wp-content/uploads/2016/09/ECU-NH-Memo-Sep29.pdf'
p286
I0
sS'https://law.marquette.edu/poll/2016/09/21/release-title/'
p287
I3
sS'http://www.upi.com/Top_News/US/2016/08/16/UPICVoter-poll-Hillary-Clinton-builds-on-lead-over-Donald-Trump/3211471355363/?spt=sec&or=tn'
p288
I0
sS'http://www.suffolk.edu/news/67568.php'
p289
I2
sS'http://www.roanoke.edu/about/news/rc_poll_may_2016_general_election'
p290
I0
sS'http://www.publicpolicypolling.com/pdf/2015/PPP_Release_MD_41916.pdf'
p291
I0
sS'http://mprc.me/research/1016_presidential2.pdf'
p292
I1
sS'http://www.realclearpolitics.com/docs/2016/2016_Reuters_Tracking_-_Core_Political_Daily_11.04_.16_.pdf'
p293
I0
sS'http://eagletonpoll.rutgers.edu/rutgers-eagleton-2016-presidential-election-Apr2016'
p294
I0
sS'http://big.assets.huffingtonpost.com/POTUSSCHOEN5.20.16topline.pdf'
p295
I0
sS'https://www.washingtonpost.com/politics/a-new-50-state-poll-shows-exactly-why-clinton-holds-the-advantage-over-trump/2016/09/05/13458832-7152-11e6-9705-23e51a2f424d_story.html'
p296
I17
sS'http://big.assets.huffingtonpost.com/LANDMARKGA.pdf'
p297
I0
sS'http://news.hamptonu.edu/release/Hampton-University%27s-CPP-Latest-Poll-Shows-VA-Voter-Shift-from-Clinton-to-Trump-Post-Email-Investigation'
p298
I8
sS'https://www.scribd.com/document/326538857/OH-Sen-Anzalone-Liszt-Grove-for-the-Ohio-Education-Association-Oct-2016'
p299
I0
sS'http://20an0w2e66jla4rfm1idisr1.wpengine.netdna-cdn.com/wp-content/uploads/2016/10/ABC_Press_Release-103016.pdf'
p300
I2
sS'http://www.ppic.org/content/pubs/survey/S_916MBS.pdf'
p301
I1
sS'http://www.breitbart.com/2016-presidential-race/2016/08/11/breitbartgravis-poll-maine-voters-support-clinton-46-trump-36/'
p302
I1
sS'http://www.quinnipiac.edu/images/polling/us/us12222015_Uhkm63g.pdf'
p303
I0
sS'http://big.assets.huffingtonpost.com/VanderbiltTNSpring2016_FinalTopline0512.pdf'
p304
I0
sS'https://docs.google.com/spreadsheets/d/1Lmzgp1uILz6KoAiS4J7ygTkvm0dgdoMdV4ZW32dMlGk/edit'
p305
I0
sS'https://pbs.twimg.com/media/CrRsSXDXYAAyW7A.jpg'
p306
I0
sS'http://www.publicpolicypolling.com/pdf/2015/PPP_Release_National_111915.pdf'
p307
I0
sS'http://polls.saintleo.edu/clinton-so-far-the-preference-in-national-polling-results/'
p308
I0
sS'http://www.rasmussenreports.com/platinum/election_2016_state_polls/crosstabs_election_2016_utah_president_october_14_16_2016'
p309
I1
sS'https://www.washingtonpost.com/page/2010-2019/WashingtonPost/2016/05/22/National-Politics/Polling/release_426.xml?uuid=v4d0jh_REeaCwqfcsxMofQ'
p310
I0
sS'http://opinionsavvy.com/wp-content/uploads/2016/09/OS-GA-General-9.15.16.pdf'
p311
I0
sS'http://www.foxnews.com/politics/interactive/2016/04/10/fox-news-poll-2016-pennsylvania-primary/'
p312
I0
sS'http://www.upi.com/Top_News/US/2016/10/27/UPICVoter-poll-Hillary-Clinton-leads-Donald-Trump-by-3-points/7581477575891/'
p313
I0
sS'http://apps.washingtonpost.com/g/page/politics/washington-post-virginia-poll-aug-11-14-2016/2076/'
p314
I0
sS'https://www.suffolk.edu/news/67699.php'
p315
I1
sS'http://www.suffolk.edu/documents/SUPRC/7_21_2016_marginals.pdf'
p316
I0
sS'http://www.quinnipiac.edu/images/polling/co/co11182015_c23tbvm.pdf'
p317
I0
sS'http://www.wsbtv.com/news/local/poll-georgians-largely-undecided-about-presidential-race/265867522'
p318
I0
sS'http://mprc.me/research/1016_presidential1.pdf'
p319
I1
sS'http://www.publicpolicypolling.com/pdf/2015/PPP_Release_GA_60116.pdf'
p320
I0
sS'http://www.rasmussenreports.com/public_content/politics/elections/election_2016/idaho/election_2016_idaho_president'
p321
I0
sS'http://magellanstrategies.com/colorado-2016-presidential-voter-opinion-survey/'
p322
I0
sS'http://idahopoliticsweekly.com/politics/1277-poll-clinton-gaining-on-trump-in-idaho'
p323
I3
sS'http://www.wthr.com/article/exclusive-wthrhpi-poll-clinton-trump-presidential-race-tightens'
p324
I4
sS'http://big.assets.huffingtonpost.com/VASTATEWIDE.pdf'
p325
I0
sS'http://projects.fivethirtyeight.com/polls/20161101_KY.pdf'
p326
I1
sS'http://www.allianceesapoll.com/new-poll-results.html'
p327
I2
sS'https://luc.id/wp-content/uploads/2016/11/Colorado-Battleground-Results.pdf'
p328
I0
sS'http://projects.fivethirtyeight.com/polls/20161103_MO_1.pdf'
p329
I0
sS'http://www.desmoinesregister.com/story/news/politics/iowa-poll/2016/10/08/iowa-poll-donald-trump-leads-hillary-clinton-by-4-points/91673644/'
p330
I12
sS'http://www.foxnews.com/politics/interactive/2016/01/08/fox-news-poll-national-presidential-race-obama-ratings/'
p331
I0
sS'http://www.upi.com/Top_News/US/2016/11/05/UPICVoter-poll-Clinton-leads-Trump-by-125-points/2711478366345/'
p332
I0
sS'http://www.realclearpolitics.com/docs/2016/Remington_VA_Oct_25th_2016.pdf'
p333
I1
sS'http://www.realclearpolitics.com/docs/2016/Remington_CO_Oct_25th_2016.pdf'
p334
I1
sS'http://www.breitbart.com/2016-presidential-race/2016/10/07/exclusive-breitbartgravis-wisconsin-poll-race-between-donald-trump-hillary-clinton-tightens-as-speaker-paul-ryan-hits-campaign-trail-with-gop-nominee-for-first-time/'
p335
I1
sS'http://www.nbcnews.com/politics/2016-election/here-s-how-gop-would-fill-vacancy-presidential-ticket-n622256'
p336
I0
sS'http://www.realclearpolitics.com/docs/2016/Zia_Poll_October_12th_2016.pdf'
p337
I0
sS'http://www.upi.com/Top_News/US/2016/09/06/UPICVoter-poll-Hillary-Clinton-holds-lead-over-Donald-Trump/4001473162869/?spt=sec&or=tn'
p338
I0
sS'http://law.marquette.edu/poll/'
p339
I8
sS'https://d25d2506sfb94s.cloudfront.net/cumulus_uploads/document/vvlr48n70w/OH_Prelim_20161106.pdf'
p340
I5
sS'http://big.assets.huffingtonpost.com/WIPollSlides.pdf'
p341
I0
sS'http://www.rand.org/pubs/research_reports/RR1758.html'
p342
I0
sS'http://i2.cdn.turner.com/cnn/2016/images/03/09/relfl1florida.pdf'
p343
I0
sS'http://www.realclearpolitics.com/docs/2016/ECP_Final_Press_Release_and_Toplines_4_States.11_.2_.pdf'
p344
I1
sS'http://www.suffolk.edu/documents/SUPRC/10_20_2016_marginals.pdf'
p345
I3
sS'http://www.upi.com/Top_News/US/2016/08/04/UPICVoter-poll-Clinton-lead-over-Trump-hits-5-percent/8561470321785/?spt=hs&or=tn_us'
p346
I0
sS'http://www.cnn.com/2016/08/24/politics/arizona-north-carolina-polls-trump-clinton/index.html'
p347
I3
sS'http://digital.vpr.net/post/vpr-poll-issues-races-and-full-results'
p348
I0
sS'http://americanresearchgroup.com/pres2016/na16-1.html'
p349
I0
sS'https://morningconsult.com/2016/09/18/clinton-maintains-lead-trump-despite-health-scare/'
p350
I2
sS'http://mprc.me/research/1016_presidential3.pdf'
p351
I0
sS'http://www.qu.edu/news-and-events/quinnipiac-university-poll/2016-presidential-swing-state-polls/release-detail?ReleaseID=2365'
p352
I4
sS'http://www.publicpolicypolling.com/pdf/2015/PPP_Release_IA_121715.pdf'
p353
I0
sS'https://www.uml.edu/docs/TOPLINE-NH-GENERAL-20161103_tcm18-264691.pdf'
p354
I10
sS'http://winwithjmc.com/wp-content/uploads/2016/07/Florida-Executive-Summary.pdf'
p355
I2
sS'https://today.yougov.com/news/2016/05/11/most-republicans-think-ryan-should-endorse-trump/'
p356
I0
sS'luc.id/2016-presidential-tracker/'
p357
I0
sS'https://www.siena.edu/assets/files/news/SNY_May_31_2016_Poll_Release_456484--_FINAL.pdf'
p358
I0
sS'http://gravismarketing.com/news/current-south-carolina-polling/'
p359
I0
sS'https://www.qu.edu/news-and-events/quinnipiac-university-poll/national/release-detail?ReleaseID=2386'
p360
I3
sS'https://www.qu.edu/news-and-events/quinnipiac-university-poll/national/release-detail?ReleaseID=2383'
p361
I2
sS'https://today.yougov.com/news/2016/11/02/yougoveconomist-poll-october-30-november-1-2016/'
p362
I1
sS'http://americanresearchgroup.com/pres2016/na16-3.html'
p363
I0
sS'http://consumerenergyalliance.org/cms/wp-content/uploads/2016/06/MA-complete-June2016.pdf'
p364
I0
sS'http://www.realclearpolitics.com/docs/2016/Economist_General_Election_June_24_to_27_2016.pdf'
p365
I0
sS'http://www.wmur.com/politics/new-hampshire-primary-source-new-poll-shows-tight-clintontrump-race-voter-interest-in-energy-issues/40407946'
p366
I0
sS'http://cesrusc.org/election/'
p367
I34
sS'http://dfw.cbslocal.com/2016/10/05/trump-leads-clinton-gains-in-latest-texas-ktvt-cbs-11-dixie-strategies-poll/'
p368
I4
sS'http://polls.saintleo.edu/wp-content/uploads/2016/09/SLU-September-2016-Poll_Complete-Findings.pdf'
p369
I2
sS'http://www.muhlenberg.edu/media/contentassets/pdf/about/polling/surveys/pennsylvania/PA-Pres_MidOct_Report.pdf'
p370
I5
sS'http://edpolicyinca.org/sites/default/files/PACE%20USC%20Poll%20CA%20Statewide%20Topline.pdf'
p371
I0
sS'http://www.wbur.org/politicker/2016/10/18/poll-clinton-trump-massachusetts'
p372
I0
sS'https://www.scribd.com/document/330329716/New-Mexico-November-4-2016-v1-'
p373
I0
sS'http://big.assets.huffingtonpost.com/OHSTATEWIDE.pdf'
p374
I0
sS'http://view2.fdu.edu/publicmind/2016/160525/'
p375
I0
sS'https://www.scribd.com/document/329261002/NEVADA-October-27-201'
p376
I0
sS'https://morningconsult.com/2016/05/poll-trump-barely-leads-trump-nationally/'
p377
I0
sS'http://nelpaction.org/wp-content/uploads/2016/08/AZResults1.pdf'
p378
I0
sS'https://www.mercyhurst.edu/sites/default/files/uploads/%3Cem%3EEdit%20Simple%3C/em%3E%20MCAP%20Polls%20/mcap_presidential_poll_fall_2016.pdf'
p379
I3
sS'https://www.scribd.com/document/319892772/UPI-CVoter-Presidential-Tracking-Poll-8-1-2016'
p380
I0
sS'http://www.surveyusa.com/client/PollReport.aspx?g=9749ea8d-a14e-4db8-bd3f-13cfb18c9d02'
p381
I1
sS'http://www.realclearpolitics.com/docs/2016/Gravis_Indiana_Oct_2016.pdf'
p382
I0
sS'https://www.siena.edu/assets/files/news/SNY_November_2016_Pre-election_Poll_Release_--_FINAL487.pdf'
p383
I1
sS'http://files.kff.org/attachment/Kaiser-Health-Tracking-Poll-October-2016'
p384
I0
sS'http://www.nbcnews.com/meet-the-press/nbc-wsj-poll-clinton-leads-trump-5-points-n598716?cid=sm_tw&amp;hootPostID=f1bc2ae86e0f1f07a0afb55a7cdbdf67'
p385
I0
sS'http://americanresearchgroup.com/pres2016/na16-5.html'
p386
I0
sS'http://www.nbcnews.com/politics/first-read/polls-clinton-ahead-or-even-midwest-battlegrounds-n608651'
p387
I1
sS'http://www.foxnews.com/politics/interactive/2016/04/14/fox-news-poll-national-release-april-14-2016/'
p388
I0
sS'http://www.ppic.org/content/pubs/survey/S_516MBS.pdf'
p389
I1
sS'http://www.kansas.com/news/politics-government/election/article111443347.html'
p390
I1
sS'http://gravismarketing.com/polling-and-market-research/virginia-election-poll052016/'
p391
I0
sS'http://americanresearchgroup.com/pres2016/nh16-1.html'
p392
I0
sS'http://kcts9.org/programs/vote-2016/new-poll-finds-washington-state-often-divided-region-and-political-parties-man'
p393
I0
sS'http://zogbyanalytics.com/news/704-zogby-analytics-clinton-45-trump-45'
p394
I0
sS'https://www.documentcloud.org/documents/3012376-UPI-CVoter-Release-2016-August-15.html'
p395
I0
sS'http://www.foxnews.com/politics/2016/10/07/fox-news-poll-clinton-edges-trump-by-two-points-one-month-ahead-election.html'
p396
I1
sS'https://poll.qu.edu/2016-presidential-swing-state-polls/release-detail?ReleaseID=2397'
p397
I10
sS'http://www.foxnews.com/politics/interactive/2016/09/21/fox-news-poll-ohio/'
p398
I4
sS'https://docs.google.com/spreadsheets/d/1r40YV2vK7ceUDi19oZKuMKZTWWGRcN6kgiXqWIQFyss/edit'
p399
I0
sS'http://www.nbcnews.com/politics/2016-election/polls-trump-ahead-arizona-texas-deadlocked-georgia-n677626'
p400
I14
sS'http://www.breitbart.com/2016-presidential-race/2016/10/31/exclusive-breitbartgravis-pennsylvania-poll-clinton-holds-slight/'
p401
I1
sS'http://m.rasmussenreports.com/public_content/politics/elections/election_2016/white_house_watch_oct11'
p402
I0
sS'http://m.rasmussenreports.com/public_content/politics/elections/election_2016/white_house_watch_oct10'
p403
I0
sS'http://www.investors.com/politics/trump-leads-clinton-by-one-point-going-into-debate-in-ibdtipp-tracking-poll/'
p404
I8
sS'http://www.publicpolicypolling.com/pdf/2015/PPP_Release_COMIVA_110416.pdf'
p405
I3
sS'https://today.yougov.com/news/2016/04/27/yougov-economist-poll-april-22-26-2016/'
p406
I0
sS'http://big.assets.huffingtonpost.com/Baruchpoll41016.pdf'
p407
I0
sS'http://us12.campaign-archive2.com/?u=5a280d25318f2afe3f311adb6&id=287ad48d38'
p408
I1
sS'https://d25d2506sfb94s.cloudfront.net/cumulus_uploads/document/wwktw0gibz/FL_ForRelease_20160911.pdf'
p409
I2
sS'https://poll.qu.edu/2016-presidential-swing-state-polls/release-detail?ReleaseID=2399'
p410
I22
sS'http://paulsimoninstitute.siu.edu/_common/documents/opinion-polling/simon-institute-poll/2016/oct-3-psppi-simon-poll-clinton-leads-trump.pdf'
p411
I1
sS'https://www.monmouth.edu/polling-institute/reports/MonmouthPoll_MO_101216/'
p412
I3
sS'http://luc.id/wp-content/uploads/2016/10/Virginia-Battleground-Results.pdf'
p413
I0
sS'http://www.publicpolicypolling.com/pdf/2015/PPP_Release_NC_12016.pdf'
p414
I0
sS'https://cola.unh.edu/sites/cola.unh.edu/files/research_publications/gsp2016_fall_nhelec103116.pdf'
p415
I6
sS'https://www.scribd.com/document/325385571/WV-Gov-Garin-Hart-Yang-for-Doug-Reynolds-Sept-2016?link_id=37&can_id=3988fa989da190d30e93d8a03b9a4393&source=email-morning-digest-despite-trumps-strength-in-northern-maine-cain-argues-she-has-a-path-to-victory&ema'
p416
I0
sS'http://www.publicpolicypolling.com/pdf/2015/PPP_Release_National_122115.pdf'
p417
I0
sS'https://s3.amazonaws.com/redoakstrategic-gcs/RedOakStrategic_NationalGCSSurvey_Aug232016.pdf'
p418
I1
sS'http://www.realclearpolitics.com/docs/2016/Remington_Research_Virginia_October_31_2016_B.pdf'
p419
I1
sS'http://www.rabaresearch.com/documents/RABA-Virginia-Survey-Results-July-2016.pdf'
p420
I0
sS'http://www.realclearpolitics.com/docs/2016/Gravis_Indiana_November_4th_2016.pdf'
p421
I0
sS'http://www.rand.org/pubs/research_reports/RR1792.html'
p422
I2
sS'https://drive.google.com/file/d/0B1XFXSmJVNknNkluX3p6cHZ3ZGI4NnMwQzZnZDl6TTRJekFz/view'
p423
I0
sS'http://media.wix.com/ugd/3bebb2_9be49212aa1f45efb06ed31243e26ad1.pdf'
p424
I0
sS'https://docs.google.com/spreadsheets/d/1UKwYzZdXYVx9-pBCg98zq5kWqeB2XymhvSCaXvnhtpk/edit'
p425
I0
sS'http://utahpolicy.com/index.php/features/today-at-utah-policy/9518-'
p426
I0
sS'http://utahpolicy.com/index.php/features/today-at-utah-policy/9909-'
p427
I1
sS'http://www.upi.com/Top_News/US/2016/09/11/UPICVoter-poll-Donald-Trump-widens-lead-over-Hillary-Clinton-to-2-points/4831473579817/'
p428
I0
sS'http://www.nbcnews.com/storyline/2016-election-day/final-nbc-wsj-poll-clinton-holds-four-point-national-lead-n678611'
p429
I19
sS'http://www.realclearpolitics.com/docs/2016/ECP_Final_Press_Release_and_Toplines_VA_IL_ME_11.1_.pdf'
p430
I1
sS'https://today.yougov.com/news/2016/08/01/yougoveconomist-poll-july-30-august-1-2016/'
p431
I1
sS'http://ap-gfkpoll.com/main/wp-content/uploads/2016/10/October-2016-AP-GfK-Poll-Topline_Campaign.pdf'
p432
I5
sS'http://www.quinnipiac.edu/images/polling/us/us12022015_U45hkpp.pdf'
p433
I0
sS'http://letsgettowork.net/wp-content/uploads/2016/07/LGTW_Statewide_Topline_Deck.pdf'
p434
I1
sS'http://www.surveyusa.com/client/PollReport.aspx?g=2d084adb-9a19-474c-86bf-f8738055af38'
p435
I0
sS'http://www.fox2detroit.com/news/local-news/215151598-story'
p436
I2
sS'http://www.meredith.edu/images/uploads/MC_Poll_September_2016_Political_Races_Full_Report.pdf'
p437
I3
sS'https://www.monmouth.edu/polling-institute/reports/MonmouthPoll_IN_103116/'
p438
I12
sS'https://www.elon.edu/E/elon-poll/poll-archive/100416.html'
p439
I1
sS'http://politics.blog.ajc.com/2016/10/21/ajc-poll-trump-and-clinton-deadlocked-georgia/'
p440
I21
sS'https://today.yougov.com/news/2016/06/04/democratic-primary-clinton-faces-close-race-califo/'
p441
I0
sS'http://polls.saintleo.edu/florida-mirrors-nation-in-persistent-affinity-for-trump-or-clinton-plus-growing-concern-for-security/?utm_source=hootsuite'
p442
I0
sS'https://www.monmouth.edu/polling-institute/reports/MonmouthPoll_MO_110116/'
p443
I11
sS'http://www.suffolk.edu/documents/SUPRC/8_4_2016_marginals.pdf'
p444
I0
sS'http://abcnews.go.com/Politics/trump-rated-honest-contest-stays-dead-heat-poll/story?id=43225421'
p445
I6
sS'http://www.bloomberg.com/politics/articles/2016-11-07/national-poll'
p446
I9
sS'https://www.documentcloud.org/documents/3214801-US5th-Nov-Report.html'
p447
I0
sS'http://www.nbcnews.com/politics/2016-election/poll-clinton-holds-four-point-national-lead-over-trump-or-n586796?cid=sm_tw&hootPostID=b0eb3889ccd19ec5b52a8c8a8aa54eb7'
p448
I0
sS'http://msnbcmedia.msn.com/i/MSNBC/Sections/A_Politics/NBC%20News_WSJ_Marist%20Poll_New%20York_%20Annotated%20Questionnaire_April%202016%20pdf%20(2).pdf'
p449
I0
sS'http://www.nbcnews.com/politics/2016-election/poll-majority-democratic-republican-voters-think-primary-process-fair-n586771'
p450
I0
sS'http://www.foxnews.com/politics/2016/07/13/fox-news-poll-trump-trails-clinton-in-colorado.html'
p451
I0
sS'http://media.wix.com/ugd/3bebb2_c4ce441cb55942e99e386bf56daef127.pdf'
p452
I1
sS'http://www.suffolk.edu/documents/SUPRC/10_27_2016_marginals.pdf'
p453
I2
sS'https://s3.amazonaws.com/redoakstrategic-gcs/RedOakStrategic_NationalGCSSurvey_Aug102016.pdf'
p454
I0
sS'http://zpolitics.com/exclusive-poll-shows-many-georgians-unphased-by-trumps-lewd-audio/'
p455
I0
sS'http://www.cbsnews.com/news/donald-trump-narrowly-leads-hillary-clinton-in-iowa/'
p456
I0
sS'http://www.foxnews.com/politics/interactive/2016/08/03/fox-news-poll-aug-3-2016/'
p457
I8
sS'http://www.upi.com/Top_News/US/2016/08/26/UPICVoter-poll-Donald-Trump-maintains-slim-lead-over-Hillary-Clinton/4311472221679/?spt=sec&or=tn'
p458
I0
sS'http://cola.unh.edu/sites/cola.unh.edu/files/research_publications/gsp2016_fall_pressengov110616.pdf'
p459
I7
sS'http://kelo.com/news/articles/2016/nov/01/poll-trump-thune-noem-maintain-leads-in-sd/'
p460
I0
sS'http://www.nbcnews.com/politics/2016-election/who-s-more-likely-beat-donald-trump-hillary-clinton-or-n570766'
p461
I0
sS'https://icitizen.com/insights/national-poll-results-july-19-omnibus/'
p462
I0
sS'http://landmarkcommunications.net/landmarkrosetta-stone-releases-final-sunday-poll-of-georgia-voters-for-president-senate/'
p463
I0
sS'http://www.ktnv.com/news/political/new-ktnvrasmussen-poll-shows-post-dnc-narrow-lead-for-hillary-clinton-over-donald-trump'
p464
I1
sS'http://www.cnn.com/2016/01/26/politics/poll-republicans-results-cnn-orc/index.html'
p465
I0
sS'https://d25d2506sfb94s.cloudfront.net/cumulus_uploads/document/sqfo3wfe7o/weekly_presidential_election_tracking_report.pdf'
p466
I0
sS'http://www.bostonglobe.com/news/politics/2016/09/13/new-poll-shows-competitive-race-maine/YNsB57jVpHmEJcJsFZRXMP/story.html?event=event25'
p467
I2
sS'http://www.publicpolicypolling.com/pdf/2015/PPP_Release_OH_50216.pdf'
p468
I0
sS'http://www.qu.edu/news-and-events/quinnipiac-university-poll/2016-presidential-swing-state-polls/release-detail?ReleaseID=2373'
p469
I1
sS'http://www.nbcnews.com/storyline/data-points/poll-clinton-maintains-national-lead-over-trump-despite-fbi-letter-n675771'
p470
I19
sS'https://www.scribd.com/document/322263998/Breitbart-National-Poll-Aug-26-Release'
p471
I1
sS'http://www.publicpolicypolling.com/pdf/2015/PPP_Release_NC_32216.pdf'
p472
I1
sS'https://cola.unh.edu/sites/cola.unh.edu/files/research_publications/primary2016_presgen012016.pdf'
p473
I0
sS'http://boston.cbslocal.com/2016/10/27/wbz-poll-new-hampshire-presidential-race-clinton-trump/'
p474
I2
sS'http://www.wvwvaf.org/wp-content/uploads/2016/06/Dcorps_WV_BG_06.30.16_for-release.pdf'
p475
I0
sS'http://www.cbsnews.com/news/poll-gender-gap-in-views-on-trumps-2005-tape/?ftag=CNM-00-10aab7i&linkId=29728068'
p476
I7
sS'http://abcnews.go.com/Politics/deep-unfavorability-clinton-trump-marks-elections-sharp-divisions/story?id=43177423'
p477
I6
sS'http://www.nbcnews.com/politics/first-read/post-debate-poll-shows-clinton-holding-9-point-lead-over-n664541'
p478
I4
sS'http://www.cbsnews.com/news/cbs-battleground-poll-partisans-divide-on-news-of-fbi-emails/'
p479
I21
sS'http://www.surveyusa.com/client/PollReport.aspx?g=2fc82f11-ee2e-4d25-b88d-805a1a9a3ae8'
p480
I1
sS'https://luc.id/correction/'
p481
I0
sS'http://www.monmouth.edu/assets/0/32212254770/32212254991/32212254992/32212254994/32212254995/30064771087/568faad2-81ab-4bd0-b373-8577326e76bd.pdf'
p482
I2
sS'https://www.scribd.com/document/329404955/CBS-News-Battleground-Tracker-Colorado-Oct-30-201'
p483
I0
sS'http://www.publicpolicypolling.com/pdf/2015/PPP_Release_National_7302016.pdf'
p484
I8
sS'http://opinionsavvy.com/wp-content/uploads/2016/11/OS-GA-General-11.4.16.pdf'
p485
I0
sS'https://today.yougov.com/news/2016/11/07/yougov-final-polls-battleground-states/'
p486
I2
sS'https://d25d2506sfb94s.cloudfront.net/cumulus_uploads/document/6v3si1v679/econTabReport.pdf'
p487
I0
sS'http://www.americansunitedforchange.org/page/-/WisconsinResults616.pdf'
p488
I0
sS'http://www.upi.com/Top_News/US/2016/10/11/UPICVoter-poll-Hillary-Clinton-gains-as-Donald-Trump-continues-to-slide/2801476186502/'
p489
I1
sS'https://www.scribd.com/document/328596671/CBS-News-Battleground-Tracker-Florida-Oct-23-201'
p490
I0
sS'http://www.wthr.com/story/31796541/exclusive-wthrhpi-poll-trump-or-cruz-would-defeat-clinton-in-indiana'
p491
I0
sS'http://intraweb.stockton.edu/eyos/hughescenter/content/docs/Polling/2016%20Polling/NJ16%20poll%201%20WFs%20(2)(1).pdf'
p492
I0
sS'http://howeypolitics.com/'
p493
I4
sS'https://www.scribd.com/document/327928411/NBC-News-SurveyMonkey-Toplines-and-Methodology-1010-1016?secret_password=KFSRdIOYrPmuQimDhEFd'
p494
I1
sS'http://www.publicpolicypolling.com/pdf/2015/PPP_Release_NC_52516.pdf'
p495
I2
sS'https://www.washingtonpost.com/local/md-politics/poll-clinton-trump-lead-in-maryland/2016/04/07/f21637c4-fb3b-11e5-9140-e61d062438bb_story.html'
p496
I0
sS'http://www.realclearpolitics.com/docs/2016/Trafalgar_Georgia_November.pdf'
p497
I0
sS'https://www.scribd.com/document/318637789/NBC-News-SurveyMonkey-Toplines-and-Methodology-7-11-7-17?secret_password=AnNcMJ7IIHCH6A0c2XQm'
p498
I0
sS'https://www.scribd.com/document/325387759/TargetSmart-William-Mary-Poll-Ohio-Statewide'
p499
I0
sS'https://www.siena.edu/news-events/article/clinton-41-trump-40-in-four-way-sunshine-state-race'
p500
I5
sS'http://www.fox2detroit.com/news/local-news/215858932-story'
p501
I3
sS'https://cdn.americanprogress.org/content/uploads/sites/2/2016/11/03143903/NationalMemo112-Final.pdf'
p502
I0
sS'http://www.breitbart.com/big-government/2016/08/31/exclusive-breitbartgravis-arizona-presidential-poll-trump-44-clinton-40-with-johnson-8-stein-1/'
p503
I0
sS'http://www.fox2detroit.com/news/local-news/215365862-story'
p504
I4
sS'https://morningconsultintelligence.com/media/mc/160703_crosstabs_trend_v2_KD.pdf'
p505
I0
sS'http://www.realclearpolitics.com/docs/2016/Trafalgar_Colorado_November_2016.pdf'
p506
I0
sS'http://www.foxnews.com/politics/interactive/2016/09/21/fox-news-poll-nevada/'
p507
I5
sS'http://cloutpolitical.com/wp-content/uploads/sites/31/2016/07/OREGON-Poll-Ballot-Test-Topline-Report-7-26-20161.pdf'
p508
I0
sS'http://www.nbcnewyork.com/news/local/Clinton-Holds-Huge-New-York-Lead-Over-Trump-Poll-394826981.html'
p509
I1
sS'http://www.breitbart.com/2016-presidential-race/2016/10/29/exclusive-breitbartgravis-north-carolina-poll-clinton-trump-in-statistical-tie/'
p510
I1
sS'http://www.cbsnews.com/news/poll-donald-trump-hillary-clinton-poll-florida-north-carolina-wisconsin-colorado-battleground-states/?platform=hootsuite'
p511
I0
sS'http://missoulian.com/news/government-and-politics/trump-leads-in-montana-but-voters-aren-t-that-fond/article_09de91e3-c013-5e70-b82e-252fff748260.html'
p512
I0
sS'http://www.foxnews.com/politics/interactive/2015/12/18/fox-news-poll-2016-gop-race-trump-muslim-ban-terrorism-isis/'
p513
I1
sS'http://www.publicpolicypolling.com/pdf/2015/PPP_Release_WV_50316.pdf'
p514
I0
sS'https://gallery.mailchimp.com/5a280d25318f2afe3f311adb6/files/AZ_Statewide__LivePoll__Toplines_11_6.pdf'
p515
I0
sS'http://www.breitbart.com/2016-presidential-race/2016/10/15/exclusive-breitbartgravis-poll-clinton-up-4-points-over-trump-in-florida/'
p516
I5
sS'http://www.breitbart.com/big-government/2016/11/05/exclusive-pat-caddell-breitbartgravis-national-poll-shows-trump-could-win-and-win-by-a-lot/'
p517
I0
sS'https://d25d2506sfb94s.cloudfront.net/cumulus_uploads/document/pn3pm1ya3o/econTabReport.pdf'
p518
I0
sS'https://www.siena.edu/news-events/article/passing-new-laws-to-address-corruption-in-state-government-is-voters-top-en'
p519
I0
sS'http://winwithjmc.com/wp-content/uploads/2016/10/Fleming-Executive-Summary-Poll-3-RELEASE.pdf'
p520
I0
sS'https://www.documentcloud.org/documents/3013245-Elway-Poll-Governor-President-081516.html'
p521
I0
sS'http://www.nbcnews.com/meet-the-press/clinton-leads-2016-match-ups-carson-rubio-run-closest-n474591'
p522
I0
sS'https://lapolitics.com/wp-content/uploads/2016/09/ALG-Topline-Report.pdf'
p523
I0
sS'https://www.qu.edu/news-and-events/quinnipiac-university-poll/2016-presidential-swing-state-polls/release-detail?ReleaseID=2345'
p524
I3
sS'reuters.com/statesofthenation/'
p525
I0
sS'http://www.cbsnews.com/news/cbs-poll-clintons-lead-over-trump-widens-with-three-weeks-to-go/'
p526
I13
sS'http://www.smartmoslb.org/Missouri%20Rail%20Survey%20November%202016%20(002).pdf'
p527
I0
sS'http://www.realclearpolitics.com/docs/2016/Remington_PA_Oct_25th_2016.pdf'
p528
I3
sS'http://www.oann.com/pollpenn/'
p529
I0
sS'https://www.scribd.com/document/323773529/NVResults912-1?keyword=ft200noi&content=10079&ad_group=Online+Tracking+Link&campaign=Skimbit%2C+Ltd.&source=impactradius&medium=affiliate&irgwc=1'
p530
I0
sS'http://media.wix.com/ugd/3bebb2_06bcdf8a3e564f1ea6549d31229f4d73.pdf'
p531
I1
sS'http://wkrg.com/2016/07/21/trump-wins-alabama-but-some-supporters-may-not-like-him/'
p532
I0
sS'http://www.reviewjournal.com/politics/election-2016/rj-poll-shows-clinton-pulling-away-trump-nevada'
p533
I1
sS'http://www.publicpolicypolling.com/pdf/2015/PPP_Release_NV_101216.pdf'
p534
I0
sS'http://files.ctctcdn.com/9c83fb30501/a0eff6a5-b62d-4180-958e-cd2aa1b93939.pdf'
p535
I0
sS'http://www.publicpolicypolling.com/pdf/2015/PPP_Release_National_51016.pdf'
p536
I1
sS'http://www.azcentral.com/story/news/politics/elections/2016/09/07/poll-arizona-toss-up-between-hillary-clinton-donald-trump/89919308/?hootPostID=a6dc2f8a466823e45aebf72da1f6c8dc'
p537
I1
sS'http://abcnews.go.com/Politics/qualifications-temperament-aid-clinton-2016-campaigns-closing-days/story?id=43327300'
p538
I8
sS'http://www.denverpost.com/2016/11/02/hillary-clinton-donald-trump-tied-in-colorado-new-poll-shows/'
p539
I7
sS'http://nmpoliticalreport.com/89809/poll-clinton-leads-trump-in-nm-johnson-strong/'
p540
I0
sS'http://www.cbsnews.com/news/cbs-poll-hillary-clinton-leads-donald-trump-but-voters-view-both-unfavorably/'
p541
I0
sS'http://www.foxnews.com/politics/interactive/2016/08/31/fox-news-poll-aug-31-2016/'
p542
I2
sS'http://docs.axiomstrategies.com/wp-content/uploads/2016/11/ABC_Press_Release-110616.pdf'
p543
I0
sS'http://www.wmur.com/blob/view/-/41140016/data/1/-/jxy7pq/-/Vox-Populi-Polling-memo.pdf'
p544
I0
sS'http://www.11alive.com/news/local/exclusive-poll-trump-holds-narrow-lead-over-clinton-in-georgia/285416138'
p545
I2
sS'http://aufc.3cdn.net/7df2e97a499c038248_9qm6bxwgr.pdf'
p546
I0
sS'http://www.upi.com/Top_News/US/2016/09/28/UPICVoter-Hillary-Clinton-regains-slight-lead-in-first-post-debate-poll/8801475069632/'
p547
I0
sS'http://www.prri.org/wp-content/uploads/2016/10/PRRI-Atlantic-Survey-Topline.pdf'
p548
I1
sS'http://luc.id/wp-content/uploads/2016/10/Georgia-Battleground-Results.pdf'
p549
I0
sS'http://dfw.cbslocal.com/2016/11/01/donald-trump-surges-to-12-point-lead-in-texas/'
p550
I8
sS'http://myweb.loras.edu/Loras/PDF/PollIASurveyJune2016.pdf'
p551
I0
sS'http://nelpaction.org/wp-content/uploads/2016/08/NCResults1.pdf'
p552
I1
sS'http://luc.id/wp-content/uploads/2016/10/North-Carolina-Battleground-Results.pdf'
p553
I1
sS'http://www.adn.com/politics/2016/10/08/new-poll-shows-trump-leads-in-presidential-race-in-alaska-but-not-by-much/'
p554
I1
sS'http://projects.fivethirtyeight.com.s3.amazonaws.com/polls/20161107_NM.pdf'
p555
I0
sS'http://www.insidesources.com/ayotte-leads-hassan-in-insidesourcesnh-journal-poll/'
p556
I0
sS'http://www.realclearpolitics.com/docs/2016/Keating_Research_November_4th_2016.pdf'
p557
I0
sS'http://www.mcclatchydc.com/news/politics-government/election/article103597232.ece/BINARY/The%20full%20McClatchy-Marist%20poll'
p558
I0
sS'http://www.loras.edu/wp-content/uploads/2016/11/LCP-NOV-IA-2016.pdf'
p559
I1
sS'https://www.scribd.com/doc/310117398/NBC-News-WSJ-Marist-Pennsylvania-Poll-Annotated-Questionnaire-April-2016?secret_password=hF58jsCziVNNSbqOfw6G'
p560
I0
sS'https://morningconsult.com/wp-content/uploads/2016/10/161003_topline_trend_v3_LIKELYVOTERS_KD.pdf'
p561
I0
sS'http://morningconsult.com/2016/02/trump-drops-slightly-clinton-holds-steady-in-new-poll/'
p562
I0
sS'http://www.realclearpolitics.com/docs/2016/SUSA_June_2016_National.pdf'
p563
I0
sS'http://media.wix.com/ugd/3bebb2_865ec63b1c494be78da4af7d7834766c.pdf'
p564
I2
sS'http://newsok.com/gallery/articleid/5518562/1/pictures/4442700?embeddedLinkType=gallery'
p565
I0
sS'https://www.scribd.com/document/329404958/CBS-News-Battleground-Tracker-Arizona-Oct-30-201'
p566
I0
sS'http://www.politico.com/states/f/?id=00000158-0ab5-d236-ad5d-dab74e5e0001'
p567
I3
sS'http://www.monmouth.edu/polling-institute/reports/MonmouthPoll_NH_092116/'
p568
I4
sS'http://www.publicpolicypolling.com/pdf/2015/PPP_Release_TX_81616.pdf'
p569
I4
sS'http://www.wltx.com/mb/news/politics/poll-trump-up-by-12-points-in-sc/314493283'
p570
I0
sS'https://salsa3.salsalabs.com/o/50742/images/Florida%20Statewide%20071416%20Public%20Release.pdf'
p571
I0
sS'http://www.realclearpolitics.com/docs/2016/Gravis_November_3rd_2016.pdf'
p572
I0
sS'https://www.siena.edu/assets/files/news/FLUpshot1016_Crosstabs_245.pdf'
p573
I5
sS'http://www.suffolk.edu/news/67378.php'
p574
I0
sS'http://www.publicpolicypolling.com/pdf/2015/2016results.pdf'
p575
I0
sS'https://icitizen.com/insights/tennessee-poll-results-october-2016-election/'
p576
I0
sS'5.720825'
p577
I0
sS'http://www.keloland.com/news/politics/campaign/keloland-campaign-2016-poll/'
p578
I1
sS'http://files.ctctcdn.com/9c83fb30501/9e02460e-4bda-4afc-adcd-9330137f842d.pdf'
p579
I0
sS'http://www.babbagecofounder.com/2016/10/18/paul-steady-trump-falls-maintain-leads-latest-poll/'
p580
I0
sS'http://www.suffolk.edu/news/67728.php'
p581
I0
sS'https://drive.google.com/a/huffingtonpost.com/folderview?id=0B99Qs2h04TA7OV9wNEpSQjdZTm8&usp=sharing'
p582
I0
sS'http://www.upi.com/Top_News/US/2016/08/09/UPICVoter-poll-Donald-Trump-stops-the-bleeding-for-a-day/9271470751783/?spt=hs&or=tn_us'
p583
I0
sS'http://morningconsult.com/2016/02/donald-trump-marco-rubio-super-tuesday-polling/'
p584
I0
sS'http://magellanstrategies.com/wp-content/uploads/2016/11/Magellan-Strategies-Colorado-US-President-Survey-Summary-110316.pdf'
p585
I3
sS'http://www.deseretnews.com/article/865664606/Poll-Trump-falls-into-tie-with-Clinton-among-Utah-voters.html'
p586
I6
sS'http://www.realclearpolitics.com/docs/2016/Remington_Research_Wisconsin_November.pdf'
p587
I0
sS'https://assets.bwbx.io/documents/users/iqjWHBFdfxIU/r2.771xfmKOI/v0'
p588
I9
sS'https://law.marquette.edu/poll/2016/03/30/new-marquette-law-school-poll-finds-cruz-sanders-ahead-in-wisconsin-presidential-primaries-bradley-leads-state-supreme-court-race/'
p589
I1
sS'http://morningconsult.com/2016/03/poll-ted-cruz-closes-gap-on-donald-trump/'
p590
I0
sS'http://heatst.com/politics/utah-poll-exclusive-voters-want-gop-to-endorse-evan-mcmullin-in-3-way-tie/'
p591
I0
sS'http://nelpaction.org/wp-content/uploads/2016/08/NHResults1.pdf'
p592
I0
sS'http://maristpoll.marist.edu/313-trump-ahead-in-fl-il-kasich-up-in-oh-clinton-ahead-in-fl-il-and-oh/'
p593
I1
sS'http://www.surveyusa.com/client/PollReport.aspx?g=be4ba04e-e65c-4fbc-9d1c-bf87874ec85d&utm_source=twitterfeed'
p594
I0
sS'http://www.foxnews.com/politics/interactive/2016/03/23/fox-news-poll-national-general-election-32316/'
p595
I0
sS'https://icitizen.com/wp-content/uploads/2016/09/National-Poll-%E2%80%93-September-2016-TOPLINE-PUBLIC.pdf'
p596
I0
sS'https://www.washingtonpost.com/politics/clinton-holds-lead-over-trump-in-new-poll-but-warning-signs-emerge/2016/09/10/800dee0c-76c8-11e6-b786-19d0cb1ed06c_story.html?postshare=531473592721373&tid=ss_tw'
p597
I1
sS'http://cnu.edu/cpp/pdf/oct%2021%202016%20report-final.pdf'
p598
I7
sS'https://morningconsultintelligence.com/media/mc/160704_topline_trend_v3_KD.pdf'
p599
I0
sS'http://view2.fdu.edu/publicmind/2016/160307/'
p600
I0
sS'http://www.reviewjournal.com/politics/election-2016/rj-poll-shows-clinton-pulling-away-trump-nevada?test'
p601
I0
sS'http://utahpolicy.com/index.php/features/today-at-utah-policy/8214-'
p602
I0
sS'http://i2.cdn.turner.com/cnn/2016/images/08/01/2016.post-dem.convention.pdf'
p603
I11
sS'https://www.cpc.udel.edu/content-sub-site/Documents/UD%20CPC%20%20RNC%20poll%20July%2025%20release-cpa.pdf'
p604
I0
sS'https://morningconsult.com/2016/05/donald-trump-tax-returns-poll-results/'
p605
I0
sS'http://mrgmi.com/2016/10/michigan-poll-trump-trails-clinton-by-five-percent/'
p606
I1
sS'http://newsok.com/article/5511779'
p607
I0
sS'https://datastudio.google.com/u/0/'
p608
I0
sS'http://www.tennessean.com/story/news/politics/2016/08/02/poll-trump-still-leading-clinton-tennessee/87950854/'
p609
I0
sS'http://email.connectstrategic.com/t/j-2A45CA0283AA87B8'
p610
I0
sS'http://www.brcpolls.com/16/RMP%202016-II-04.pdf'
p611
I0
sS'http://www.realclearpolitics.com/docs/2016/Remington_Research_South_Dakota_October_22nd_2016.pdf'
p612
I0
sS'http://big.assets.huffingtonpost.com/160103_topline_trend_v4_TS.pdf'
p613
I0
sS'http://www.cbsnews.com/news/hillary-clinton-edges-ahead-of-donald-trump-after-first-presidential-debate-hofstra-2016-cbs-nyt-poll/'
p614
I7
sS'http://magellanstrategies.com/magellan-strategies-colorado-survey-2016/'
p615
I0
sS'http://www.upi.com/Top_News/US/2016/08/31/UPICVoter-poll-Hillary-Clinton-maintains-27-point-lead-over-Donald-Trump/5421472648025/?spt=hts&or=2'
p616
I0
sS'http://www.babbagecofounder.com/2016/08/08/cofounder-pulse-poll-presidential-and-senate-poll-kentucky/'
p617
I0
sS'https://www.scribd.com/document/330017282/Final-Indiana-Poll'
p618
I1
sS'https://morningconsult.com/2016/05/hillary-clinton-donald-trump-general-election-polling/'
p619
I0
sS'https://www.documentcloud.org/documents/3010129-UPI-CVoter-Release-2016-August-11.html'
p620
I0
sS'http://www.startribune.com/in-minnesota-poll-clinton-widens-lead-over-trump/398272671/'
p621
I4
sS'http://abcnews.go.com/Politics/beneath-close-election-contest-lie-deep-rifts-groups/story?id=43253122'
p622
I5
sS'http://www.rasmussenreports.com/public_content/politics/questions/pt_survey_questions/july_2016/questions_white_house_watch_july_26_27_2016'
p623
I0
sS'http://www.nbcnews.com/politics/2016-election/poll-clinton-leads-trump-how-would-november-look-without-him-n603496'
p624
I0
sS'http://www.msubillings.edu/urelations/releases/2015/POLL_2015.pdf'
p625
I1
sS'https://today.yougov.com/news/2016/05/25/clinton-expands-her-primary-lead-sanders-supporter/'
p626
I0
sS'http://www.publicpolicypolling.com/pdf/2015/PPP_Release_National_83016.pdf'
p627
I1
sS'http://americanresearchgroup.com/nhpoll/pres16/'
p628
I9
sS'https://www.scribd.com/document/327007811/NBC-News-SurveyMonkey-Toplines-and-Methodology-10-3-10-9'
p629
I1
sS'http://gravismarketing.com/polling-and-market-research/current-colorado-polling-2/'
p630
I0
sS'http://idahopoliticsweekly.com/politics/1078-poll-nearly-half-of-idahoans-say-they-will-vote-for-trump-in-november'
p631
I0
sS'http://www.ppic.org/content/pubs/other/Crosstabs_LikelyVoters0716.pdf'
p632
I0
sS'https://www.washingtonpost.com/local/virginia-politics/clinton-leads-trump-in-virginia-in-new-washington-post-poll-propelled-by-voter-rich-northern-virginia/2016/10/31/1e560cce-9f9c-11e6-8832-23a007c77bb4_story.html'
p633
I5
sS'http://www.monmouth.edu/polling-institute/reports/MonmouthPoll_WI_083116/'
p634
I2
sS'http://www.monmouth.edu/polling-institute/reports/MonmouthPoll_PA_083016/'
p635
I5
sS'http://www.freep.com/story/news/politics/2016/11/04/free-press-poll-donald-trump-gains-hillary-clinton-race-michigan-tightens/93287658/'
p636
I8
sS'http://www.breitbart.com/2016-presidential-race/2016/10/15/exclusive-breitbartgravis-poll-clinton-opens-lead-over-trump-44-39-in-colorado-gains-5-points-in-a-week/'
p637
I2
sS'http://www.realclearpolitics.com/docs/2016/Gravis_National_Final.pdf'
p638
I0
sS'http://www.upi.com/Top_News/US/2016/08/25/UPICVoter-poll-Donald-Trump-leading-Hillary-Clinton-for-first-time-in-weeks/8291472137479/?spt=sec&or=tn'
p639
I0
sS'http://abcnews.go.com/Politics/dead-heat-congress-clintons-advantage-poll/story?id=43047979'
p640
I1
sS'http://www.upi.com/Top_News/US/2016/09/20/UPICVoter-poll-Hillary-Clinton-reclaims-slight-lead-over-Donald-Trump/6381474380177/'
p641
I0
sS'http://projects.fivethirtyeight.com/polls/20161027_NM.pdf'
p642
I0
sS'http://media.wix.com/ugd/3bebb2_f1333cfb6e9f42ae9d2e9dd81053b33a.pdf'
p643
I2
sS'http://www.usatoday.com/story/news/politics/elections/2015/12/08/poll-trump-cruz-rubio-clinton-sanders/76948760/'
p644
I0
sS'https://www.qu.edu/images/polling/us/us08252016_U88mxwn.pdf'
p645
I1
sS'http://www.cbsnews.com/news/poll-hillary-clinton-up-florida-new-hampshire-extends-lead-electoral-map/'
p646
I7
sS'http://i2.cdn.turner.com/cnn/2016/images/09/05/rel13a.-.2016.post-labor.day.pdf'
p647
I10
sS'http://www.cnn.com/2015/12/04/politics/hillary-clinton-republicans-head-to-head-poll/index.html'
p648
I0
sS'http://www.huffingtonpost.com/david-ormsby/poll-clinton-thumping-tru_b_12579014.html'
p649
I0
sS'http://www.detroitnews.com/story/news/politics/2016/10/12/presidential-poll-michigan/91964392/'
p650
I3
sS'https://www.qu.edu/news-and-events/quinnipiac-university-poll/2016-presidential-swing-state-polls/release-detail?ReleaseID=2376'
p651
I14
sS'https://d25d2506sfb94s.cloudfront.net/cumulus_uploads/document/d1qd4msxfd/econTabReport.pdf'
p652
I0
sS'http://media.wix.com/ugd/3bebb2_dd659ad4faf34206969d7dbef07995e2.pdf'
p653
I4
sS'http://www.foxnews.com/politics/interactive/2016/09/30/full-fox-news-poll-results-30/'
p654
I4
sS'http://www.cbsnews.com/news/poll-women-propel-hillary-clinton-into-battleground-lead-over-donald-trump/?ftag=CNM-00-10aab7e&linkId=29990731'
p655
I0
sS'https://medium.com/@alexanderpower/new-utah-poll-17c3d315155'
p656
I0
sS'http://www.investors.com/politics/trump-holds-ground-against-clinton-ties-her-in-a-four-way-matchup/'
p657
I0
sS'http://www.roanoke.edu/about/news/rc_poll_oct_2016_politics'
p658
I1
sS'http://www.investors.com/wp-content/uploads/2016/04/Tables_Apr2016_Posting-1.pdf'
p659
I0
sS'http://www.realclearpolitics.com/docs/2016/FOX_2_Detroit-Mitchell_Poll_of_MI_Press_Clinton_v_Trump_10-12-16_A.pdf'
p660
I0
sS'http://media.wix.com/ugd/3bebb2_3a8db9da60ec4ceb961732ea0d849022.pdf'
p661
I0
sS'http://www.nbcnews.com/politics/2016-election/hillary-clinton-holds-slim-national-lead-over-donald-trump-poll-n574901'
p662
I0
sS'http://msnbcmedia.msn.com/i/MSNBC/Sections/A_Politics/NBC%20News_WSJ_Marist%20Poll%20Iowa%20Annotated%20Questionnaire_January%202016.pdf'
p663
I0
sS'http://www.americansunitedforchange.org/page/-/IowaResults616.pdf'
p664
I0
sS'http://media.wix.com/ugd/3bebb2_b85d13974aeb4901bd68916b963cea3c.pdf'
p665
I0
sS'http://newsok.com/article/5498100'
p666
I0
sS'http://www.illinoisobserver.net/2016/06/15/poll-trump-64-unfavorable-rating-helps-give-clinton-19-point-lead-illinois/'
p667
I0
sS'https://d25d2506sfb94s.cloudfront.net/cumulus_uploads/document/55tpi6jrz1/OH_ForRelease_20160911.pdf'
p668
I3
sS'http://media.wix.com/ugd/3bebb2_6ee2070379ba4a88bff29b1fa5aae9e0.pdf'
p669
I5
sS'http://www.realclearpolitics.com/docs/2016/Landmark_Poll_Georgia_Statewide_Oct_11-12_2016.pdf'
p670
I1
sS'http://projects.fivethirtyeight.com/polls/20161028_US_1.pdf'
p671
I0
sS'https://www.scribd.com/doc/314370658/NBC-News-SurveyMonkey-Toplines-and-Methodology-5-23-5-29?secret_password=gy6ehxYOZykr35Fg4ces'
p672
I0
sS'https://law.marquette.edu/poll/2016/01/28/new-marquette-law-school-poll-finds-tight-races-in-wisconsin-presidential-primaries/'
p673
I1
sS'http://www.postandcourier.com/20160823/160829712/sc-democrats-tout-new-poll-showing-clinton-trump-in-dead-heat'
p674
I0
sS'http://www.publicpolicypolling.com/pdf/2015/PPP_Release_OH_100616.pdf'
p675
I1
sS'http://cloutpolitical.com/wp-content/uploads/sites/31/2016/05/OR-Statewide-Poll-Memorandum-5-18-2016.pdf'
p676
I0
sS'http://www.insidesources.com/wp-content/uploads/2016/10/InsideSources-NH-Journal-Poll-10.31.16.pdf'
p677
I4
sS'http://www.nbcnews.com/politics/2016-election/poll-majority-americans-dislike-hillary-clinton-donald-trump-n578926'
p678
I0
sS'http://www.nola.com/politics/index.ssf/2016/09/2016_louisiana_senate_race_wan.html'
p679
I1
sS'http://www.oann.com/pollresults/'
p680
I0
sS'https://www.scribd.com/document/325392290/MN-Sept-25-v2'
p681
I0
sS'http://www.rasmussenreports.com/platinum/political_tracking_crosstabs/october_2016/crosstabs_election_2016_white_house_watch_october_9_11_2016'
p682
I1
sS'https://luc.id/wp-content/uploads/2016/11/Arizona-Battleground-Results.pdf'
p683
I0
sS'http://gravismarketing.com/polling-and-market-research/florida-general-election-poll-marijuana-and-trans-bathroom/'
p684
I1
sS'http://www.realclearpolitics.com/docs/2016/Remington_Research_Florida_November.pdf'
p685
I0
sS'http://www.foxnews.com/politics/2016/11/07/fox-news-poll-results-11716.html'
p686
I5
sS'http://www.realclearpolitics.com/docs/2016/FOX_2_Detroit-Mitchell_Poll_of_MI_Press_Clinton_v_Trump_11-2-16_A.pdf'
p687
I1
sS'http://www.publicpolicypolling.com/pdf/2015/PPP_Release_SC_81116.pdf'
p688
I2
sS'https://law.marquette.edu/poll/category/poll-release/'
p689
I7
sS'https://law.marquette.edu/poll/2016/02/25/new-marquette-law-school-poll-finds-tight-democratic-race-trump-maintaining-republican-lead-in-wisconsin/'
p690
I1
sS'https://www.scribd.com/document/327758570/CBS-News-Battleground-Tracker-Utah-Oct-1'
p691
I0
sS'http://apps.washingtonpost.com/g/page/politics/surveymonkey-15-state-poll/2103/'
p692
I21
sS'http://www.suffolk.edu/documents/SUPRC/4_25_2016_marginals.pdf'
p693
I0
sS'https://law.marquette.edu/poll/2016/10/12/press-release-title/'
p694
I6
sS'http://www.rabaresearch.com/documents/RABA-National-Survey-July-2016.pdf'
p695
I0
sS'http://www.wbur.org/politicker/2016/10/14/poll-trump-clinton-new-hampshire'
p696
I12
sS'http://www.breitbart.com/2016-presidential-race/2016/10/08/exclusive-breitbartgravis-colorado-poll-donald-trump-hillary-clinton-tied-key-western-battleground-state/'
p697
I3
sS'http://www.rasmussenreports.com/public_content/politics/elections/election_2016/nevada/election_2016_nevada_president'
p698
I2
sS'http://www.realclearpolitics.com/docs/2016/Emerson_Iowa_November_4th_2016_B.pdf'
p699
I0
sS'http://www.rasmussenreports.com/public_content/politics/elections/election_2016/libertarians_johnson_makes_little_dent_in_clinton_trump_race'
p700
I0
sS'https://morningconsult.com/2016/08/21/trumps-campaign-shakeup-likely-little-late/'
p701
I1
sS'http://projects.fivethirtyeight.com/polls/20160711_targetpoint_statewide.pdf'
p702
I0
sS'http://www.nbcnews.com/politics/2016-election/trump-faces-hurdle-minority-voters-clinton-maintains-lead-poll-shows-n636061'
p703
I5
sS'http://web.centre.edu/benjamin.knoll/2016FCSStopline.pdf'
p704
I0
sS'https://d25d2506sfb94s.cloudfront.net/cumulus_uploads/document/7gcuxp09db/ForRelease_IA_20160717.pdf'
p705
I0
sS'http://www.upi.com/Top_News/US/2016/08/10/UPICVoter-poll-Trump-stabilizes-standing-for-a-second-consecutive-day/8001470837116/?spt=hs&or=tn_us'
p706
I0
sS'https://twitter.com/hwypol/status/764497782677790720'
p707
I0
sS'http://www.realclearpolitics.com/docs/2016/FOX_2_Detroit-Mitchell_Poll_of_MI_Press_Clinton_v_Trump_11-3-16_FINAL.pdf'
p708
I1
sS'http://email.connectstrategic.com/t/j-34549BEAED04456D'
p709
I0
sS'http://files.constantcontact.com/9c83fb30501/bf2b01c8-26d1-4eaf-983a-1ee767e34e62.pdf'
p710
I0
sS'http://www.rasmussenreports.com/public_content/politics/elections/election_2016/utah/election_2016_utah_president'
p711
I3
sS'http://www.rasmussenreports.com/public_content/politics/elections/election_2016/clinton_vs_trump_still_a_dead_heat'
p712
I0
sS'http://morningconsult.com/wp-content/uploads/2015/11/151101_topline_NV_FINAL.pdf'
p713
I0
sS'http://www.monmouth.edu/polling-institute/reports/MonmouthPoll_MO_082316/'
p714
I5
sS'http://abcnews.go.com/Politics/clinton-rebounds-enthusiasm-trump-slips-tight-race-poll/story?id=43309964'
p715
I1
sS'http://www.rasmussenreports.com/platinum/election_2016_state_polls/crosstabs_election_2016_idaho_president_october_20_22_2016'
p716
I0
sS'http://www.flchamber.com/politicians-parties-and-plaintiff-trial-lawyers-are-unknown-or-unliked-in-new-florida-chamber-of-commerce-statewide-poll/'
p717
I1
sS'http://i2.cdn.turner.com/cnn/2016/images/02/29/rel4b.-.2016.general.pdf'
p718
I0
sS'http://caps.gov.harvard.edu/2016-poll'
p719
I0
sS'http://d279m997dpfwgl.cloudfront.net/wp/2016/11/Topline-2016-10-WBUR-NH-General-6.pdf'
p720
I13
sS'http://www.publicpolicypolling.com/pdf/2015/PPP_Release_NC_80916.pdf'
p721
I6
sS'http://www.nbcnews.com/storyline/data-points/poll-eve-election-day-clinton-maintains-her-edge-over-trump-n678816'
p722
I7
sS'http://www.breitbart.com/2016-presidential-race/2016/10/08/exclusive-breitbartgravis-poll-clinton-leads-trump-by-8-in-oregon/'
p723
I1
sS'http://projects.fivethirtyeight.com/polls/20161102_CO_1.pdf'
p724
I0
sS'http://www.field.com/fieldpollonline/subscribers/Rls2530.pdf'
p725
I0
sS'http://www.realclearpolitics.com/docs/2016/Remington_WI_Oct_25th_2016.pdf'
p726
I1
sS'http://www.democracycorps.com/National-Surveys/clinton-and-congressional-democrats-widen-lead-over-opponents/'
p727
I0
sS'http://www.surveyusa.com/client/PollReport.aspx?g=fda53900-e6db-46a6-86a5-81e39fd92d32'
p728
I0
sS'https://texaspolitics.utexas.edu/blog/university-texas-texas-politics-project-poll-shows-trump-leading-clinton-amidst-signs-disunity'
p729
I0
sS'http://www.realclearpolitics.com/docs/2016/Gravis_National_July_2016.pdf'
p730
I0
sS'https://morningconsult.com/wp-content/uploads/2016/10/PoliticoMCTopicals10.2.pdf'
p731
I0
sS'http://www.publicpolicypolling.com/pdf/2015/PPP_Release_NC_42716.pdf'
p732
I2
sS'https://d25d2506sfb94s.cloudfront.net/cumulus_uploads/document/zlnzmj83fl/ForRelease_OH_20160821.pdf'
p733
I1
sS'https://www.scribd.com/document/329404957/CBS-News-Battleground-Tracker-Pennsylvania-Oct-30-201'
p734
I0
sS'http://media.wix.com/ugd/3bebb2_b53ca6b673c14cdab9d68832bd7e74cb.pdf'
p735
I4
sS'http://www.fandm.edu/uploads/files/517148503881751921-f-m-poll-release-july-2016.pdf'
p736
I13
sS'http://www.bloomberg.com/politics/articles/2016-10-19/national-poll'
p737
I20
sS'http://latimes.com/politics/'
p738
I0
sS'http://www.realclearpolitics.com/docs/2016/2016_Reuters_Tracking_-_Core_Political_Daily_11.07_.16_.pdf'
p739
I0
sS'http://www.rasmussenreports.com/platinum/political_tracking_crosstabs/august_2016/toplines/toplines_election_2016_white_house_watch_august_1_2_2016'
p740
I0
sS'http://www.politico.com/story/2016/10/poll-41-percent-of-voters-say-the-election-could-be-stolen-from-trump-229871'
p741
I13
sS'http://www.nbcnews.com/politics/first-read/polls-clinton-holds-9-point-lead-new-hampshire-tied-nevada-n673361'
p742
I11
sS'https://morningconsultintelligence.com/media/mc/160805_topline_trend_v4_KD.pdf'
p743
I1
sS'http://www.realclearpolitics.com/docs/2016/Remington_Research_Ohio_November.pdf'
p744
I0
sS'http://www.prri.org/wp-content/uploads/2016/10/PRRIThe-Atlantic-Survey-Topline-Oct.-9.pdf'
p745
I3
sS'http://www.loras.edu/news/clinton-tops-trump-illinois-duckworth-remains-lead-senate-loras-college-poll-finds/'
p746
I1
sS'http://www.roanoke.edu/about/news/rc_poll_nov_2016_politics'
p747
I5
sS'http://www.freep.com/story/news/politics/2016/10/06/hillary-clinton-donald-trump-michigan/91611112/'
p748
I4
sS'http://m.cjonline.com/news/state/2016-09-01/sam-brownback-viewed-unfavorably-70-percent-confidential-gop-poll-blamed'
p749
I0
sS'http://www.wral.com/wral-poll-clinton-trump-in-virtual-tie-in-nc/16081925/'
p750
I1
sS'https://www.scribd.com/document/330329777/North-Carolina-November-5-2016-v'
p751
I0
sS'http://www.breitbart.com/big-government/2016/09/25/exclusive-breitbartgravis-polls-trump-takes-lead-colorado-maintains-lead-ohio/'
p752
I3
sS'https://today.yougov.com/news/2016/03/14/trump-rises-national-support-rubio-falls-and-carso/'
p753
I0
sS'https://www.scribd.com/document/325385309/NBC-News-SurveyMonkey-Toplines-and-Methodology-9-19-9-25?secret_password=CqNOg89vq7VeBArrg8bF'
p754
I1
sS'http://www.upi.com/Top_News/US/2016/08/22/UPICVoter-poll-Donald-Trump-sticks-to-script-comes-to-within-1-of-Hillary-Clintons-lead/3141471867581/?spt=sec&or=tn'
p755
I0
sS'https://www.scribd.com/document/324811878/WY-AL-DFM-Research-for-Ryan-Greene-Sept-2016'
p756
I0
sS'http://www.sacbee.com/news/politics-government/election/presidential-election/article102803037.html'
p757
I1
sS'http://www.lelandbeatty.com/uploads/1/4/2/1/14214393/txg16beattypollresultsfinalresults.pdf'
p758
I0
sS'http://www.wcax.com/story/33487111/wcax-poll-vermonters-strongly-favor-clinton'
p759
I1
sS'http://www.realclearpolitics.com/docs/2016/MI_7-16_Press_Clinton_v_Trump_7-21-16_MAHP_A.pdf'
p760
I0
sS'http://www.monmouth.edu/polling-institute/reports/MonmouthPoll_PA_100416/'
p761
I4
sS'http://www.usatoday.com/story/news/politics/elections/2016/07/04/usa-today-suffolk-poll-voters-alarmed-trump-clinton/86632526/'
p762
I0
sS'http://www.realclearpolitics.com/docs/2016/FOX_2_Detroit-Mitchell_Poll_of_MI_Press_Clinton_v_Trump_11-6-16_FINAL_B.pdf'
p763
I2
sS'https://static.texastribune.org/media/documents/ut-tt-oct-2016-methodology.pdf'
p764
I0
sS'https://www.scribd.com/doc/295919133/NBC-WSJ-January-Poll'
p765
I0
sS'http://projects.fivethirtyeight.com/polls/20160817_US_1.pdf'
p766
I0
sS'http://www.people-press.org/2016/10/14/in-presidential-contest-voters-say-basic-facts-not-just-policies-are-in-dispute/?utm_source=adaptivemailer&utm_medium=email&utm_campaign=16-10-14%20panel%20election%20report&org=982&lvl=100&ite=413&lea=66917&ctr=0&par=1&trk='
p767
I0
sS'http://www.publicpolicypolling.com/pdf/2015/PPP_Release_VA_91316.pdf'
p768
I0
sS'http://www.rand.org/pubs/research_reports/RR1726.html'
p769
I0
sS'https://today.yougov.com/news/2016/03/31/trump-still-leads/'
p770
I0
sS'http://dailycaller.com/2016/11/02/new-poll-clinton-45-trump-44-in-michigan/'
p771
I1
sS'https://www.bostonglobe.com/news/politics?p1=BGHeader_MainNav'
p772
I1
sS'http://www.publicpolicypolling.com/pdf/2015/PPP_Release_NY_41216.pdf'
p773
I0
sS'https://www.documentcloud.org/documents/3107245-UPI-CVoter-12-Sept-2016.html'
p774
I0
sS'http://www.13newsnow.com/news/politics/elections/poll-clinton-leads-in-virginia-trump-rebounds-slightly/339712305'
p775
I1
sS'https://morningconsultintelligence.com/media/mc/160702_crosstabs_trend_v3_AP.pdf'
p776
I0
sS'https://icitizen.com/insights/oregon-poll-results-june-2016/'
p777
I0
sS'http://www.craciunresearch.com/wp-content/uploads/2016/10/Press-Release_Presidential-Election-2016_Alaska-Survey_Craciun-Research-_102916.pdf'
p778
I2
sS'https://www.documentcloud.org/documents/3035543-UPI-CVoter-Release-2016-August-29.html'
p779
I0
sS'http://www.realclearpolitics.com/docs/2016/Gravis_PA_November_3rd_2016.pdf'
p780
I1
sS'https://today.yougov.com/news/2016/07/25/yougoveconomist-poll-july-23-24-2016/'
p781
I4
sS'http://www.realclearpolitics.com/docs/2016/2016_Reuters_Tracking_-_Core_Political_10.25_.16_.pdf'
p782
I0
sS'http://media.wix.com/ugd/3bebb2_d697f4238943476f89e7cdfc710c309f.pdf'
p783
I1
sS'https://drive.google.com/file/d/0B4lhKxf9pMitbll0NGxMTHFuc0U/view'
p784
I0
sS'https://www.monmouth.edu/polling-institute/reports/MonmouthPoll_US_101716/'
p785
I8
sS'https://www.scribd.com/document/324821200/16804-NBCWSJ-September-Poll-9-21-Release?secret_password=gKkeD7pKqo5rYoSPNmfU'
p786
I4
sS'http://www.monmouth.edu/polling-institute/reports/MonmouthPoll_CO_071316/'
p787
I0
sS'https://cola.unh.edu/sites/cola.unh.edu/files/research_publications/gsp2016_summer_presrace072116.pdf'
p788
I1
sS'http://endcitizensunited.org/wp-content/uploads/2016/10/ECU-NV-poll3-Oct12.pdf'
p789
I0
sS'http://www.surveyusa.com/client/PollReport.aspx?g=4114a2c6-213f-4447-8c7b-eb137d8c3312'
p790
I0
sS'http://www.mcall.com/news/local/elections/mc-pa-trump-clinton-poll-20160917-story.html'
p791
I5
sS'http://www.winthrop.edu/news-events/article.aspx?id=46011'
p792
I0
sS'https://d25d2506sfb94s.cloudfront.net/cumulus_uploads/document/k9zf6i4ig6/ForRelease_IA_20160821.pdf'
p793
I1
sS'http://big.assets.huffingtonpost.com/SienaPoll030316.pdf'
p794
I0
sS'http://heatst.com/politics/poll-third-party-candidate-viable-vs-donald-trump-and-hillary-clinton/'
p795
I0
sS'https://d25d2506sfb94s.cloudfront.net/cumulus_uploads/document/mwbtap4dgs/FL_Prelim_20161106.pdf'
p796
I5
sS'http://msutoday.msu.edu/news/2016/clinton-winning-michigan-easily/'
p797
I1
sS'http://www.realclearpolitics.com/docs/2016/FOX_2_Detroit-Mitchell_Poll_of_MI_Press_Clinton_v_Trump_9-9-16.pdf'
p798
I1
sS'http://www.realclearpolitics.com/docs/2016/Remington_Research_North_Carolina_October_31_2016.pdf'
p799
I3
sS'http://abc7.com/politics/poll-ca-voters-resigned-to-vote-for-donald-trump-vs-hillary-clinton/1318792/'
p800
I0
sS'http://www.upi.com/Top_News/US/2016/08/12/UPICVoter-poll-Hillary-Clinton-rebounds-after-3-days-of-lost-ground/3301470942640/?spt=sec&or=tn'
p801
I1
sS'http://www.publicpolicypolling.com/pdf/2015/PPP_Release_FL_22516.pdf'
p802
I0
sS'http://big.assets.huffingtonpost.com/BGGWTarranceGroupLakeResearch.pdf'
p803
I0
sS'http://www.theadvocate.com/baton_rouge/news/politics/article_38cc60ba-9ba7-11e6-b933-a73c72e3f6bd.html'
p804
I2
sS'http://nelpaction.org/wp-content/uploads/2016/08/OhioResults1.pdf'
p805
I0
sS'http://morningconsult.com/polls/new-poll-gop-candidates-face-low-favorability-ratings-ahead-of-debate/?utm_source=hs_email&utm_medium=email&utm_content=25265250&_hsenc=p2ANqtz-9-cm8pRQBX8B6j_igFKoPXMWvQjBelSqzLEhIWpg6c_8kNzurG16MG-LgaJBqcv2OCbhL5yDGm1rJ8i'
p806
I0
sS'http://www.publicpolicypolling.com/pdf/2015/PPP_Release_OH_31016.pdf'
p807
I0
sS'http://www.monmouth.edu/polling-institute/reports/MonmouthPoll_OH_100516/'
p808
I7
sS'http://www.13newsnow.com/news/politics/elections/clinton-holds-slight-lead-over-trump-in-hampton-u-poll/312505460'
p809
I0
sS'https://www.scribd.com/doc/299690763/NBCNews-WSJ-February-Poll?secret_password=Mf2CgQ8zDGpLW73pfCoJ'
p810
I0
sS'http://zogbyanalytics.com/news/755-clinton-maintains-small-lead-against-trump-trump-s-numbers-improve-among-hispanic-voters'
p811
I0
sS'https://law.marquette.edu/poll/2016/06/15/new-marquette-law-school-poll-finds-clinton-feingold-leading-majorities-have-negative-views-of-presidential-candidates/'
p812
I1
sS'http://www.monmouth.edu/polling-institute/reports/MonmouthPoll_IN_081716/'
p813
I5
sS'http://projects.fivethirtyeight.com/polls/20161030_VA_1.pdf'
p814
I1
sS'http://www.texaslyceum.org/resources/Pictures/Texas%20Lyceum%202016%20Poll%20Topline.pdf'
p815
I1
sS'http://www.upi.com/Top_News/US/2016/10/28/UPICVoter-poll-Clintons-lead-slips-below-2-percent/5601477668222/'
p816
I0
sS'http://www.cbsnews.com/news/poll-hillary-clinton-and-donald-trump-tied-going-into-democratic-convention/'
p817
I0
sS'http://www.nbcnews.com/politics/2016-election/clinton-trump-deadlocked-battleground-states-polls-n646216'
p818
I6
sS'http://www.realclearpolitics.com/docs/2016/MRG_MI_Poll_Spring_16_Pres_Prim-FINAL.pdf'
p819
I0
sS'http://www.adn.com/politics/2016/08/21/voter-dissatisfaction-with-clinton-and-trump-has-libertarian-johnson-hoping-alaskans-go-third-party/'
p820
I0
sS'http://www.foxnews.com/politics/interactive/2016/11/04/fox-news-poll-results-11416/'
p821
I10
sS'http://www.realclearpolitics.com/docs/2016/New_York_Times_Siena_NC_Oct_25th.pdf'
p822
I2
sS'https://www.scribd.com/doc/313450291/CBS-News-2016-Battleground-Tracker-Florida-May-22'
p823
I1
sS'http://www.realclearpolitics.com/docs/2016/Trafalgar_FL_November_2016.pdf'
p824
I1
sS'http://www.realclearpolitics.com/docs/2016/Remington_NC_Oct_25th_2016.pdf'
p825
I3
sS'https://www.nwprogressive.org/files/polling/JUN16-WA-Clinton-vs-Trump-Survey-Results.pdf'
p826
I0
sS'http://www.pollingreport.com/wh16gen.htm'
p827
I1
sS'https://www.suffolk.edu/news/67513.php'
p828
I0
sS'http://www.nola.com/politics/index.ssf/page/president_poll_daily_tracker.html'
p829
I2
sS'http://www.realclearpolitics.com/docs/2016/MagellanBR-YP_Poll_Toplines_081616.pdf'
p830
I1
sS'http://www.desmoinesregister.com/story/news/politics/iowa-poll/2016/11/05/iowa-poll-trump-opens-7-point-lead-over-clinton/93347134/'
p831
I8
sS'http://media.wix.com/ugd/3bebb2_7af2e664bfad4690bfb4a994b0f0836c.pdf'
p832
I0
sS'https://www.siena.edu/assets/files/news/SNY_September_2016_Poll_Release_--_Final345.pdf'
p833
I1
sS'http://projects.fivethirtyeight.com/polls/20160925_National_1.pdf'
p834
I0
sS'http://media.wix.com/ugd/3bebb2_73d4ad9247704c9488a764acae6f7767.pdf'
p835
I0
sS'http://www.realclearpolitics.com/docs/2016/Trafalgar_N._Carolina_November_.pdf'
p836
I2
sS'https://cmgajcpolitics.files.wordpress.com/2016/07/lrpmemo-georgiademocraticparty-f-072016.pdf'
p837
I0
sS'http://opinionsavvy.com/wp-content/uploads/2016/08/OS-FL-General-8.11.16.pdf'
p838
I2
sS'http://www.ktnv.com/news/ralston/poll-presidential-senate-races-in-nevada-are-dead-heats'
p839
I0
sS'http://polls.saintleo.edu/clinton-lead-growing-in-florida-and-across-the-u-s-in-new-saint-leo-poll-and-most-expect-her-to-win-the-presidency/'
p840
I0
sS'http://www.loras.edu/news/clinton-trump-tight-race-iowa-grassley-young-blum-leads-loras-college-poll-finds/'
p841
I3
sS'http://www.roanoke.edu/Documents/rcpoll/Nov2015.Consumer%20Sentiment%20and%20Politics%20Topline.pdf'
p842
I0
sS'http://www.chicagobusiness.com/article/20160722/BLOGS02/160729927/poll-gives-kirk-edge-over-duckworth-while-clinton-clobbers-trump'
p843
I0
sS'https://www.elon.edu/e/CmsFile/GetFile?FileID=694'
p844
I1
sS'https://www.bostonglobe.com/metro/2016/05/08/trump-faces-steep-climb-mass/L391H6NMgi8gW3uoud0hrN/story.html'
p845
I0
sS'projects.fivethirtyeight.com/polls/20161107_Swing_1.pdf'
p846
I0
sS'http://www.publicpolicypolling.com/pdf/2015/PPP_Release_National_33116.pdf'
p847
I0
sS'https://www.scribd.com/document/328596670/CBS-News-Battleground-Tracker-Texas-Oct-23-201'
p848
I0
sS'https://morningconsultintelligence.com/media/mc/160403_topline_trend_v2_AP.pdf'
p849
I0
sS'http://www.monmouth.edu/polling-institute/reports/MonmouthPoll_US_080816/'
p850
I4
sS'http://morningconsult.com/wp-content/uploads/2016/01/160102_Topline-Trend.pdf'
p851
I0
sS'https://cola.unh.edu/sites/cola.unh.edu/files/research_publications/gsp2016_summer_preselect090216.pdf'
p852
I1
sS'http://www.upi.com/Top_News/US/2016/10/31/UPICVoter-poll-Hillary-Clintons-lead-over-Donald-Trump-shrinks-to-47/2441477919030/'
p853
I0
sS'http://www.upi.com/Top_News/US/2016/09/05/UPICVoter-poll-Hillary-Clinton-edges-out-Donald-Trump-with-385-point-lead/2051473089153/'
p854
I0
sS'http://www.realclearpolitics.com/docs/2016/Gravis_FL_November_3rd_2016.pdf'
p855
I0
sS'http://opinionsavvy.com/wp-content/uploads/2016/10/OS-FL-General-10.21.16.pdf'
p856
I4
sS'http://www.surveyusa.com/client/PollReport.aspx?g=84afcc98-70ab-4d07-8bfb-258e0d4760bc'
p857
I1
sS'http://view2.fdu.edu/publicmind/2016/161018/'
p858
I1
sS'http://www.publicpolicypolling.com/pdf/2015/PPP_Release_NH_120715.pdf'
p859
I0
sS'http://www.nbcnews.com/politics/2016-election/trump-leads-kasich-support-reaches-new-high-ahead-n-y-n557826'
p860
I0
sS'http://apps.washingtonpost.com/g/page/politics/post-abc-tracking-poll-nov-1-4-2016/2127/'
p861
I3
sS'http://www.publicpolicypolling.com/pdf/2015/PPP_Release_NC_21716.pdf'
p862
I1
sS'http://images.campaignpartner.net/images/15290/MissouriResults112.pdf'
p863
I1
sS'http://rockefeller.dartmouth.edu/sites/rockefeller.drupalmulti-prod.dartmouth.edu/files/nh_state_of_the_state_2016_report.pdf'
p864
I1
sS'http://www.monmouth.edu/polling-institute/reports/MonmouthPoll_IN_101416/'
p865
I1
sS'https://www.scribd.com/document/324571615/NBC-News-SurveyMonkey-Toplines-and-Methodology-9-12-9-18'
p866
I0
sS'http://www.politico.com/states/florida/story/2016/09/rubio-leads-by-2-in-internal-murphy-campaign-poll-105537'
p867
I0
sS'http://www.breitbart.com/big-government/2016/11/04/exclusive-breitbartgravis-new-hampshire-poll-trump-takes-lead-granite-state/'
p868
I3
sS'http://www.realclearpolitics.com/docs/2016/AIF_April_2016.pdf'
p869
I0
sS'http://floridapolitics.com/archives/223845-national-democrats-pull-ads-new-associated-industries-poll-shows-patrick-murphy-trailing-marco-rubio-eight'
p870
I0
sS'http://www.kansascity.com/news/local/news-columns-blogs/the-buzz/article69418112.html'
p871
I1
sS'http://www.quinnipiac.edu/images/polling/ny/ny03312016_N39pgrw.pdf'
p872
I0
sS'http://sanfrancisco.cbslocal.com/2016/11/01/surveyusa-kpix-5-poll-hillary-clinton-donald-trump-prop-64-marijuana/'
p873
I0
sS'http://harperpolling.com/polls/pennsylvania-statewide-poll--9-21-22'
p874
I1
sS'http://www.breitbart.com/2016-presidential-race/2016/09/23/breitbartgravis-poll-clinton-holds-national-lead-at-44-trump-40/'
p875
I1
sS'http://www.rabaresearch.com/documents/RABA-Simpson-College-Survey-September-09-2016.pdf'
p876
I1
sS'https://www.scribd.com/doc/316876703/NBC-News-SurveyMonkey-Toplines-and-Methodology-6-20-6-26'
p877
I0
sS'https://luc.id/2016-presidential-tracker/'
p878
I4
sS'https://d25d2506sfb94s.cloudfront.net/cumulus_uploads/document/cx4orjzwhb/econTabReport.pdf'
p879
I1
sS'http://www.upi.com/Top_News/US/2016/08/18/UPICVoter-poll-Hillary-Clinton-maintains-steady-lead-over-Donald-Trump/6511471479758/?spt=hs&or=tn_us'
p880
I0
sS'https://www.cpc.udel.edu/news/Pages/clinton-leads-trump-51-to-30.aspx'
p881
I0
sS'http://projects.fivethirtyeight.com/polls/20161009_National_1.pdf'
p882
I0
sS'http://themissouritimes.com/35001/greitens-trims-kosters-lead-trump-surges-missouri/'
p883
I0
sS'http://view2.fdu.edu/publicmind/2016/160629/'
p884
I0
sS'http://landmarkcommunications.net/wp-content/uploads/2016/07/LandmarkRosetta-Stone-Releases-Latest-Georgia-Presidential-Poll.pdf'
p885
I0
sS'https://morningconsult.com/2016/11/06/final-2016-poll-morning-consult/'
p886
I5
sS'http://www.pressherald.com/2016/06/25/portland-press-herald-june-2016-poll-results/'
p887
I0
sS'https://www.scribd.com/document/329374598/FL-Oct-27-v2-'
p888
I0
sS'http://apps.washingtonpost.com/g/page/politics/washington-post-abc-news-national-poll-oct-10-13-2016/2102/'
p889
I1
sS'http://www.fox2detroit.com/news/local-news/214932733-story'
p890
I2
sS'http://www.publicpolicypolling.com/pdf/2015/PPP_Release_NC_62316.pdf'
p891
I2
sS'http://media.wix.com/ugd/3bebb2_b5e76b2074da42c997193908b170981b.pdf'
p892
I0
sS'http://www.documentcloud.org/documents/3213243-225-Crossley-Survey-Results-Media.html'
p893
I7
sS'http://www.firstcoastnews.com/news/unf-poll-shows-clinton-holds-a-slight-lead-over-trump-in-florida/343029691'
p894
I0
sS'http://nelpaction.org/wp-content/uploads/2016/08/WIResults1.pdf'
p895
I0
sS'https://s3.amazonaws.com/ei-static/EchelonLucid-PostRNC072216.pdf'
p896
I0
sS'http://apps.washingtonpost.com/g/page/politics/post-abc-tracking-poll-nov-2-5-2016/2130/'
p897
I0
sS'http://apps.washingtonpost.com/g/page/politics/washington-post-abc-news-poll-aug-1-4-2016/2071/'
p898
I1
sS'http://www.realclearpolitics.com/docs/2016/Gravis_National_Oct_25_26_2016.pdf'
p899
I0
sS'https://morningconsult.com/2016/03/security-issues-rise-after-brussels-attacks/'
p900
I0
sS'http://media.wix.com/ugd/3bebb2_f41eb67b0e694f8ca80b020facc8d937.pdf'
p901
I0
sS'http://themissouritimes.com/34543/poll-koster-trump-lead-missouri-lt-gov-close-call/'
p902
I2
sS'http://www.upi.com/Top_News/US/2016/09/15/UPICVoter-poll-Donald-Trump-Hillary-Clinton-pull-back-into-virtual-tie/7631473884538/'
p903
I0
sS'http://www.upi.com/Top_News/US/2016/09/02/UPICVoter-poll-Hillary-Clintons-lead-over-Donald-Trump-dips-slightly/4771472763750/?spt=sec&or=tn'
p904
I0
sS'https://www.scribd.com/document/330329810/Virginia-November-5-2016-v1-'
p905
I0
sS'http://mprc.me/research/0816_presidential.pdf'
p906
I0
sS'http://www.suffolk.edu/documents/SUPRC/8_25_2016_final_marginals.pdf'
p907
I1
sS'http://www.baltimoresun.com/news/maryland/politics/bs-md-trump-clinton-poll-20160906-story.html'
p908
I1
sS'http://media.wix.com/ugd/3bebb2_4b2b9517da414c0fb1c825dfe5416794.pdf'
p909
I1
sS'http://www.zogbyanalytics.com/news/753-showdown-between-clinton-and-trump-too-close-to-call-trump-leads-clinton-big-among-independents'
p910
I0
sS'http://www.uml.edu/Research/public-opinion/polls/default.aspx'
p911
I0
sS'http://www.thegazette.com/subject/news/public-safety/trump-clings-to-small-edge-in-iowa-20161103'
p912
I0
sS'http://www.upi.com/Top_News/US/2016/10/12/UPICVoter-poll-Hillary-Clintons-lead-grows-to-64-points-over-Donald-Trump/3511476279299/'
p913
I0
sS'https://morningconsult.com/wp-content/uploads/2016/06/160605_topline_Topicals_v3_TS.pdf'
p914
I0
sS'http://www.flchamber.com/new-florida-chamber-of-commerce-statewide-poll-shows-presidential-race-leaning-toward-hillary-clinton-in-florida/'
p915
I0
sS'http://www.surveyusa.com/client/PollReport.aspx?g=7a998d53-af1c-4a34-996c-6de020dea785&utm_source=twitterfeed&utm_medium=twitter'
p916
I0
sS'http://www.nbcnews.com/meet-the-press/how-trump-rubio-cruz-would-fare-against-clinton-november-n534191'
p917
I0
sS'http://www.realclearpolitics.com/docs/2016/ECP_Final_Press_Release_and_Topline_5_States_10.29_.pdf'
p918
I5
sS'https://www.uml.edu/docs/2-5%20TOPLINE%20-%20UMassLowell-7NEWS%20NH%20PRIMARY_tcm18-230845.pdf'
p919
I0
sS'https://lintvwavy.files.wordpress.com/2016/11/hu-cpp-poll-6-final.pdf'
p920
I0
sS'http://www.colby.edu/goldfarb/elections/colby-globe-election-poll/'
p921
I2
sS'http://morningconsult.com/wp-content/uploads/2015/11/151101_topline_NH_FINAL.pdf'
p922
I0
sS'https://www.monmouth.edu/polling-institute/reports/MonmouthPoll_NV_101816/'
p923
I6
sS'https://www.documentcloud.org/documents/3033919-UPI-CVoter-Release-2016-August-24.html'
p924
I0
sS'http://www.monmouth.edu/polling-institute/reports/MonmouthPoll_CO_100316/'
p925
I7
sS'http://observer.com/2016/11/stockton-new-jersey-poll-clinton-51-trump-40/'
p926
I1
sS'http://www.quinnipiac.edu/images/polling/us/us03232016_Umk53pw.pdf'
p927
I0
sS'http://www.suffolk.edu/news/67865.php'
p928
I0
sS'http://msnbcmedia.msn.com/i/MSNBC/Sections/NEWS/NBC%20NewsWSJMarist.pdf'
p929
I0
sS'http://wvmetronews.com/2016/10/17/justice-poll-shows-dem-up-10-cole-poll-says-race-a-dead-heat/'
p930
I0
sS'https://talkbusiness.net/2016/10/trump-boozman-maintain-big-leads-in-arkansas/'
p931
I0
sS'https://drive.google.com/file/d/0B4lhKxf9pMitN1JxcDRvQkdudkE/view'
p932
I3
sS'http://i2.cdn.turner.com/cnn/2016/images/09/26/relco1.pdf'
p933
I6
sS'http://www.cnn.com/2016/11/02/politics/polls-hillary-clinton-donald-trump-florida-pennsylvania-nevada-arizona/index.html?sr=twCNN110216polls-hillary-clinton-donald-trump-florida-pennsylvania-nevada-arizona0407PMVODtopLink&linkId=30619479'
p934
I1
sS'https://www.umw.edu/news/wp-content/uploads/sites/7/2016/09/UMW-VA-Survey-2016_First-Release-Topline.pdf'
p935
I4
sS'http://www.foxnews.com/politics/2016/10/18/fox-news-poll-clinton-tops-trump-by-6-points.html'
p936
I16
sS'http://www.upi.com/Top_News/US/2016/10/17/UPICVoter-poll-Hillary-Clinton-leads-Donald-Trump-by-469-points/2921476714500/?spt=sec&or=tn'
p937
I0
sS'http://files.constantcontact.com/9c83fb30501/5f71c952-eb63-429a-8236-34989a8765ae.pdf'
p938
I3
sS'http://data.workwithiws.com/wp-content/uploads/2016/07/IWS-Arizona-POTUS-General.pdf'
p939
I0
sS'http://www.surveyusa.com/client/PollReport.aspx?g=378880b5-7bb0-449b-bf41-cfcbde47f2e0'
p940
I0
sS'https://assets.bwbx.io/documents/users/iqjWHBFdfxIU/rAjnCYJjgvBw/v0'
p941
I1
sS'http://winwithjmc.com/wp-content/uploads/2016/08/Georgia-Executive-Summary.pdf'
p942
I3
sS'http://www.langerresearch.com/wp-content/uploads/1184a122016ElectionTrackingNo12.pdf'
p943
I1
sS'https://www.scribd.com/document/327758276/CNU-Wason-Center-for-Public-Policy-voter-poll'
p944
I0
sS'https://www.scribd.com/document/326741685/Mark-Kirk-s-internal-polling'
p945
I0
sS'http://www.epicmra.com/press/Stwd_Survey_Mar2016_Media_Freq.pdf'
p946
I0
sS'http://www.baynews9.com/content/news/baynews9/news/article.html/content/news/articles/cfn/2016/10/25/florida_decides_polls_presidential_race.html'
p947
I3
sS'http://www.realclearpolitics.com/docs/2016/MRG_MI_Poll_OCT_16_Pres_Gen_FINAL1.pdf'
p948
I0
sS'http://targetsmart.com/tswmp-ohio2/'
p949
I1
sS'http://www.mcall.com/news/local/elections/mc-pa-poll-trump-clinton-toomey-mcginty-20161105-story.html'
p950
I8
sS'http://i2.cdn.turner.com/cnn/2016/images/10/24/cnn.poll.pdf'
p951
I23
sS'http://www.upi.com/Top_News/US/2016/09/26/UPICVoter-poll-Hillary-Clinton-Donald-Trump-in-virtual-tie-heading-into-first-debate/8181474896561/?spt=sec&or=tn'
p952
I0
sS'http://www.investors.com/politics/ibd-tipp-presidential-election-poll/'
p953
I78
sS'http://projects.fivethirtyeight.com/polls/20161029_1.pdf'
p954
I0
sS'http://www.breitbart.com/2016-presidential-race/2016/10/07/breitbartgravis-poll-clinton-and-trump-tied-in-florida-rubio-leads-murphy-in-senate-contest/'
p955
I2
sS'http://www.fandm.edu/uploads/files/295186459482343904-f-m-poll-release-march-2016-1.pdf'
p956
I0
sS'http://www.upi.com/Top_News/US/2016/11/02/UPICVoter-poll-Clinton-has-less-than-1-point-lead-over-Trump/9421478096457/'
p957
I0
sS'http://abc7.com/politics/poll-clinton-poised-to-defeat-sanders-in-california-primary/1351808/'
p958
I0
sS'https://morningconsultintelligence.com/media/mc/160615_crosstabs_trend_v2_AP.pdf'
p959
I0
sS'http://www.gravispolls.com/2016/11/final-gravis-marketing-nevada-poll-2016.html?m=1'
p960
I0
sS'http://www.realclearpolitics.com/docs/2016/Remington_Research_Colorado_October_31_2016.pdf'
p961
I3
sS'http://www.kansas.com/news/local/article112533742.html'
p962
I0
sS'https://fnn.app.box.com/s/sgnjwngqy9an66atgcy9mzusetzwlifc'
p963
I0
sS'http://www.realclearpolitics.com/docs/2016/Economist_YouGov_June_2nd_to_5th.pdf'
p964
I0
sS'http://www.americansunitedforchange.org/page/-/NHResults616.pdf'
p965
I0
sS'http://morningconsult.com/wp-content/uploads/2015/11/151101_topline_SC_FINAL.pdf'
p966
I0
sS'http://abcnews.go.com/Politics/contest-narrows-expectations-poll/story?id=43116832'
p967
I3
sS'http://www.rebootillinois.com/2016/06/10/featured-articles/richmiller/capitol-fax-poll-voters-blame-michael-madigan-for-budget-mess/59655/'
p968
I0
sS'http://www.rabaresearch.com/documents/RABA-Ohio-Survey-Results-June-2016.pdf'
p969
I0
sS'https://twitter.com/EchelonInsights/status/781184551607558145'
p970
I1
sS'http://www.upi.com/Top_News/US/2016/10/10/UPICVoter-poll-Clinton-pulls-into-5-point-lead-over-Trump/7301476105358/'
p971
I0
sS'https://www.washingtonpost.com/politics/poll-clinton-leads-trump-aided-by-obama-coalition/2016/03/08/40dd6698-e575-11e5-b0fd-073d5930a7b7_story.html'
p972
I0
sS'http://media.wix.com/ugd/3bebb2_01dca97a9c05411984c50df92d62cf50.pdf'
p973
I1
sS'http://i2.cdn.turner.com/cnn/2016/images/10/17/link.1..pdf'
p974
I8
sS'http://idahopoliticsweekly.com/politics/1145-poll-idaho-voters-favor-trump-over-clinton'
p975
I0
sS'http://www.sltrib.com/news/3993058-155/poll-trumps-unpopularity-could-swing-utahns'
p976
I1
sS'http://www.kptv.com/story/33544841/fox-12-dhm-poll-clinton-leads-trump-in-oregon-measure-97-trends-toward-defeat'
p977
I4
sS'https://drive.google.com/file/d/0B4lhKxf9pMitOXlldjlMQUNRbkU/view'
p978
I0
sS'http://www.upi.com/Top_News/US/2016/10/03/UPICVoter-poll-Donald-Trump-leads-Hillary-Clinton-by-25-points/9051475504225/?spt=sec&or=tn'
p979
I1
sS'http://maristpoll.marist.edu/wp-content/misc/usapolls/us160329/MCC/General%20Election/McClatchy_Marist%20Poll_General%20Election__Complete%20Survey%20Findings_Nature%20of%20the%20Sample%20and%20Tables_April%202016.pdf'
p980
I0
sS'http://i2.cdn.turner.com/cnn/2016/images/09/14/floridapoll.pdf'
p981
I3
sS'http://www1.wne.edu/news/2016/11/PollingTables_FINAL_11_04_16.pdf'
p982
I3
sS'http://opinionsavvy.com/wp-content/uploads/2016/11/OS-FL-General-11.3.16.pdf'
p983
I1
sS'http://themissouritimes.com/35272/less-one-week-new-poll-shows-greitens-first-time/'
p984
I1
sS'https://drive.google.com/file/d/0B4lhKxf9pMitRFdHQVQxZEJWVG8/view'
p985
I1
sS'http://www.monmouth.edu/polling-institute/reports/MonmouthPoll_IA_091516/'
p986
I7
sS'http://big.assets.huffingtonpost.com/quipac.pdf'
p987
I0
sS'http://nelpaction.org/wp-content/uploads/2016/08/MOResults1.pdf'
p988
I0
sS'http://apps.washingtonpost.com/g/page/politics/washington-post-abc-news-poll-dec-10-13-2015/1914/'
p989
I0
sS'http://www.publicpolicypolling.com/pdf/2015/PPP_Release_AZ_51716.pdf'
p990
I0
sS'https://morningconsult.com/2016/03/cruz-edges-closer-to-trump-new-presidential-poll/?utm_content=31597007&utm_medium=social&utm_source=twitter'
p991
I0
sS'http://www.dispatch.com/content/stories/local/2016/11/06/dispatch-poll-finds-presidential-race-too-close-to-call.html'
p992
I10
sS'http://www.publicpolicypolling.com/main/2016/06/virginians-support-stronger-gun-measures-clinton-has-narrow-lead.html'
p993
I0
sS'http://m.rasmussenreports.com/public_content/politics/elections/election_2016/white_house_watch_oct13'
p994
I0
sS'http://www.quinnipiac.edu/images/polling/oh/oh02242016_Oiu84jk.pdf'
p995
I0
sS'https://www.scribd.com/document/330329594/Florida-November-3-2016-v1-'
p996
I0
sS'http://www.oann.com/pollwisconsin/'
p997
I0
sS'http://i2.cdn.turner.com/cnn/2016/images/11/02/relfl3.pdf'
p998
I11
sS'http://i2.cdn.turner.com/cnn/2016/images/11/02/relnv3.pdf'
p999
I9
sS'http://www.monmouth.edu/polling-institute/reports/MonmouthPoll_OH_082216/'
p1000
I1
sS'http://www.nbcnews.com/politics/first-read/clinton-holds-11-point-national-lead-over-trump-nbc-wsj-n666986'
p1001
I17
sS'http://www.upi.com/Top_News/US/2016/08/19/UPICVoter-poll-Hillary-Clinton-loses-two-points-to-Donald-Trump/6051471614583/?spt=sec&or=tn'
p1002
I0
sS'http://www.investors.com/wp-content/uploads/2016/08/ibdtippINTERNAL_Tables_Aug2016_Horserace_Registered-Voters.pdf'
p1003
I0
sS'http://www.mcclatchydc.com/news/politics-government/election/article93763582.html'
p1004
I6
sS'http://www.cleveland.com/open/index.ssf/2016/10/new_ohio_poll_puts_hillary_cli.html'
p1005
I4
sS'http://www.publicpolicypolling.com/pdf/2015/PPP_Release_National_92916.pdf'
p1006
I2
sS'https://www.monmouth.edu/polling-institute/reports/MonmouthPoll_US_110716/'
p1007
I5
sS'http://myweb.loras.edu/Loras/PDF/POLLStatewideIASurveySept26-2016.pdf'
p1008
I0
sS'https://law.marquette.edu/poll/2016/08/10/new-marquette-law-school-poll-finds/'
p1009
I1
sS'http://news.hamptonu.edu/release/HU-Poll%3A-Post--Debate-Surge-Gives-Democrats-Double--Digit-Surge-among-Virginians'
p1010
I1
sS'http://www.mystatesman.com/news/news/state-regional-govt-politics/new-texas-polls-shows-trump-with-small-but-safe-le/nsx2d/'
p1011
I2
sS'http://digital.vpr.net/post/vpr-poll-overall-results-full-data'
p1012
I0
sS'https://d25d2506sfb94s.cloudfront.net/cumulus_uploads/document/q8r0rkibs1/econTabReport.pdf'
p1013
I0
sS'http://www.rasmussenreports.com/platinum/political_tracking_crosstabs/september_2016/crosstabs_election_2016_white_house_watch_september_26_28_2016'
p1014
I0
sS'https://www.scribd.com/document/329698329/TargetSmart-William-Mary-Florida-Poll-of-Early-and-Likely-Voters'
p1015
I9
sS'https://www.scribd.com/document/328156011/ME-02-Clarity-Campaign-Labs-for-House-Majority-PAC-Oct-2016'
p1016
I1
sS'http://gravismarketing.com/polling-and-market-research/current-north-carolina-polling-2/'
p1017
I1
sS'http://projects.fivethirtyeight.com/polls/20160930_NH_1.pdf'
p1018
I0
sS'http://media.wix.com/ugd/3bebb2_53615dafc82943029530359fe87ee6be.xlsx?dn=ECPS_ME_results_9.5a.xlsx'
p1019
I0
sS'http://www.publicpolicypolling.com/pdf/2015/PPP_Release_National_63016.pdf'
p1020
I0
sS'http://harperpolling.com/polls/pennsylvania-statewide-poll--march-2016'
p1021
I0
sS'http://www.msubillings.edu/urelations/releases/newsphotos2016/oct/Montana_Poll_2016.pdf'
p1022
I0
sS'http://www.foxnews.com/politics/interactive/2016/10/13/fox-news-poll-october-13-2016/'
p1023
I3
sS'http://www.fox2detroit.com/news/local-news/213813298-story'
p1024
I1
sS'http://big.assets.huffingtonpost.com/VictoryResearch10242016poll.pdf'
p1025
I0
sS'http://www.roanoke.edu/about/news/rc_poll_politics_sept2016'
p1026
I2
sS'http://business.fau.edu/departments/economics/business-economics-polling/bepi-polls/index.aspx'
p1027
I0
sS'https://www.documentcloud.org/documents/3173866-Elway-Poll-102416.html'
p1028
I0
sS'http://us12.campaign-archive2.com/?u=5a280d25318f2afe3f311adb6&id=e0ffd26e1f&e=6251b3b51b'
p1029
I0
sS'https://twitter.com/LoriGearyWSB/status/794532025038499840'
p1030
I0
sS'http://rebootillinois.com/2016/09/13/illinoisans-wish-for-new-presidential-nominees-poll-finds/?utm_source=media&utm_medium=partner&utm_content=&utm_campaign='
p1031
I0
sS'https://www.stlmag.com/news/in-missouri-voter-polls-president-governor/'
p1032
I4
sS'http://www.upi.com/Top_News/US/2016/08/30/UPICVoter-poll-Hillary-Clinton-maintains-31-point-lead-over-Donald-Trump/9561472563451/?spt=sec&or=tn'
p1033
I0
sS'http://ksn.com/2016/10/18/ksn-news-poll-continues-to-show-strong-support-for-trump-in-kansas/'
p1034
I3
sS'http://zogbyanalytics.com/news/742-zogby-analytics-news-wire-general-election-head-to-head-matchups'
p1035
I0
sS'http://morningconsult.com/wp-content/uploads/2015/11/151101_topline_IA_FINAL.pdf'
p1036
I0
sS'http://www.realclearpolitics.com/docs/2016/Remington_Research_Wisconsin_October_31_2016.pdf'
p1037
I3
sS'http://projects.fivethirtyeight.com/polls/11072016_sen.pdf'
p1038
I3
sS'http://opinionsavvy.com/wp-content/uploads/2016/05/GA-5.16.16-Full.pdf'
p1039
I0
sS'http://komonews.com/news/local/komo-poll-clinton-has-big-washington-lead-big-unfavorables-inlsee-leads'
p1040
I1
sS'http://www.nbcnews.com/storyline/data-points/poll-clinton-s-lead-narrows-among-independents-voters-nationally-n646911'
p1041
I0
sS'http://www.gravispolls.com/2016/11/final-national-poll-2016-gravis.html?m=1'
p1042
I0
sS'http://www.nbcnews.com/politics/2016-election/donald-trump-s-lead-continues-grow-nationally-poll-n566181'
p1043
I0
sS'http://projects.fivethirtyeight.com/polls/20160910_MA_1.pdf'
p1044
I0
sS'https://s3.amazonaws.com/redoakstrategic-gcs/RedOakStrategic_NationalGCSSurvey_Sept62016.pdf'
p1045
I1
sS'http://msnbcmedia.msn.com/i/MSNBC/Sections/A_Politics/16229%20NBCWSJ%20April%20Poll.pdf'
p1046
I0
sS'https://www.scribd.com/document/329371234/NC-Oct-27-v2-'
p1047
I0
sS'http://winwithjmc.com/wp-content/uploads/2016/09/Fleming-Executive-Summary-Poll-2-RELEASE.pdf'
p1048
I0
sS'http://themissouritimes.com/34112/poll-koster-lead-increases-trump-10-points/'
p1049
I1
sS'http://big.assets.huffingtonpost.com/AJCPollGA.pdf'
p1050
I0
sS'http://www.realclearpolitics.com/docs/2016/Trafalgar_Ohio_October_27th_2016.pdf'
p1051
I0
sS'https://medium.com/@alexanderpower/new-presidential-polls-in-idaho-alaska-80a338dc851d'
p1052
I0
sS'http://www.breitbart.com/2016-presidential-race/2016/08/10/breitbartgravis-poll-virtual-tie-peach-state-trump-45-clinton-44/'
p1053
I1
sS'http://www.roanoke.edu/about/news/rc_poll_aug_2016_politics'
p1054
I2
sS'https://www.scribd.com/document/321277283/NBC-News-SurveyMonkey-Toplines-and-Methodology-8-8-8-14?secret_password=kn8HkRF6D2HoWP7ICAXM'
p1055
I1
sS'https://morningconsult.com/wp-content/uploads/2016/06/160609_crosstabs_stacked_trend_v3_AP.pdf'
p1056
I0
sS'http://www.breitbart.com/2016-presidential-race/2016/10/29/exclusive-breitbartgravis-florida-poll-donald-trump-and-hillary-clinton-in-statistical-tie/'
p1057
I2
sS'https://fulbright.uark.edu/departments/political-science/partners/arkpoll/2016/Arkansas-Poll-Release-2016.pdf'
p1058
I0
sS'https://www.scribd.com/document/330232698/TargetSmart-William-Mary-Release-Final-2016-Election-Survey-of-Ohio-Early-and-Likely-Voters'
p1059
I0
sS'http://www.suffolk.edu/academics/10732.php'
p1060
I0
sS'http://www.realclearpolitics.com/docs/2016/UMass_Amherst_October_27th_2916.pdf'
p1061
I0
sS'http://projects.fivethirtyeight.com/polls/20160919_NC_1.pdf'
p1062
I0
sS'http://www.11alive.com/news/politics/elections/exclusive-poll-donald-trump-will-win-georgia/343838078'
p1063
I0
sS'http://www.langerresearch.com/wp-content/uploads/1184a32016ElectionTrackingNo3.pdf'
p1064
I4
sS'http://gravismarketing.com/polling-and-market-research/current-utah-polling/'
p1065
I0
sS'http://www.snc.edu/sri/docs/2016/201610_Fall_WI_Survey_President_Release.pdf'
p1066
I2
sS'http://opinionsavvy.com/wp-content/uploads/2016/10/OS-FL-General-10.12.16.pdf'
p1067
I4
sS'http://fm.cnbc.com/applications/cnbc.com/resources/editorialfiles/2016/10/27/survey.pdf'
p1068
I14
sS'http://www.realclearpolitics.com/docs/2016/Remington_Research_Pennsylvania_October_31_2016.pdf'
p1069
I3
sS'http://msnbcmedia.msn.com/i/MSNBC/Sections/A_Politics/NBC%20News_WSJ_Marist%20Poll_New%20Hampshire%20Annotated%20Questionnaire_January%202016.pdf'
p1070
I0
sS'https://law.marquette.edu/poll/2016/08/31/new-marquette-law-school-poll-finds-clinton-edge-over-trump-narrowing-to-pre-convention-levels-among-wisconsin-voters/'
p1071
I2
sS'http://www.desmoinesregister.com/story/news/politics/2016/06/16/poll-shows-clinton-grassley-leading-iowa/85947420/'
p1072
I0
sS'http://projects.fivethirtyeight.com/polls/20160928_MI_1.pdf'
p1073
I0
sS'http://big.assets.huffingtonpost.com/MerillPollGeneralPR.pdf'
p1074
I0
sS'http://www.publicpolicypolling.com/pdf/2015/PPP_Release_PA_80116.pdf'
p1075
I0
sS'http://www.nbcnews.com/politics/2016-election/poll-trump-reaches-50-percent-support-nationally-first-time-n562061'
p1076
I0
sS'https://www.scribd.com/document/325174301/WEB-Presidential-Poll'
p1077
I0
sS'http://gcsionline.com/wp-content/uploads/2016/09/Polling_President_092716.pdf'
p1078
I0
sS'http://wlns.com/2016/10/27/poll-clinton-holds-healthy-lead-over-trump-in-michigan/'
p1079
I0
sS'https://law.marquette.edu/poll/wp-content/uploads/2015/11/MLSP31ToplinesFinal.pdf'
p1080
I0
sS'http://www.newsmax.com/Politics/clinton-trump-quinnipiac-new-york/2016/07/19/id/739311/'
p1081
I0
sS'http://www.upi.com/Top_News/US/2016/09/08/UPICVoter-poll-Donald-Trump-pushes-ahead-of-Hillary-Clinton/8281473343152/'
p1082
I0
sS'http://www.elon.edu/e-web/elonpoll/041916.xhtml'
p1083
I2
sS'https://mediarelations.gwu.edu/americans-overwhelmingly-engaged-2016-election-tone-race-affecting-voters-new-gw-battleground-poll'
p1084
I0
sS'http://www.monmouth.edu/polling-institute/reports/MonmouthPoll_UT_101316/'
p1085
I9
sS'https://eagletonpollblog.files.wordpress.com/2016/09/rutgers-eagleton-poll-2016-election-head-to-head-results1.pdf'
p1086
I0
sS'http://big.assets.huffingtonpost.com/RMU20154Report.pdf'
p1087
I0
sS'http://www.realclearpolitics.com/docs/2016/Gravis_IA_July_2016.pdf'
p1088
I0
sS'http://utahpolicy.com/index.php/features/today-at-utah-policy/10765-'
p1089
I3
sS'http://americansforresponsiblesolutions.org/files/2016/08/Polling-Memo.pdf'
p1090
I0
sS'http://www.surveyusa.com/client/PollReport.aspx?g=6581a9ab-f961-4f38-8e5f-c23fc53d1736'
p1091
I0
sS'https://www.scribd.com/document/327920049/HG-Survey-Toplines-10-14'
p1092
I0
sS'http://www.deseretnews.com/article/865666429/New-poll-shows-voter-uncertainty-about-Trump-lead-in-Utah.html'
p1093
I0
sS'https://twitter.com/jdistaso/status/786336536300232704'
p1094
I0
sS'http://www.publicpolicypolling.com/pdf/2015/PPP_Release_FL_90716.pdf'
p1095
I5
sS'http://www.realclearpolitics.com/docs/2016/Remington_FL_Oct_25th_2016.pdf'
p1096
I1
sS'http://www.realclearpolitics.com/docs/2016/Gravis_New_Hampshire_November_4.pdf'
p1097
I0
sS'http://www.pressherald.com/2016/10/30/clinton-extends-her-lead-in-latest-maine-sunday-telegram-poll-of-voters/'
p1098
I1
sS'http://www.publicpolicypolling.com/pdf/2015/PPP_Release_UT_82316.pdf'
p1099
I1
sS'https://today.yougov.com/news/2016/08/07/cbs-battleground-tracker-arizona-nevada-virginia/'
p1100
I5
sS'http://www.oann.com/pollnational/'
p1101
I1
sS'http://www.lasvegasnow.com/news/nvdebate-tight-race-between-clinton-and-trump'
p1102
I1
sS'http://www.philly.com/philly/blogs/big_tent/Clinton-up-big-in-PA-says-new-FM-College-Poll.html'
p1103
I1
sS'http://projects.fivethirtyeight.com/polls/20160809_NY_1.pdf'
p1104
I0
sS'http://www.bloomberg.com/politics/articles/2016-10-26/florida-poll'
p1105
I20
sS'https://www.scribd.com/document/328753246/NBC-News-SurveyMonkey-Toplines-and-Methodology-1017-1023?secret_password=sIipyJjqvaCenavKCCzX'
p1106
I0
sS'http://www.foxnews.com/politics/interactive/2016/06/09/fox-news-poll-national-releas-6-16/'
p1107
I0
sS'http://www.zogbyanalytics.com/news/750-clinton-beats-trump-but-sanders-does-better-among-women-millennials-and-independents-when-facing-trump'
p1108
I0
sS'https://drive.google.com/drive/u/0/folders/0B29GVb5ISrT0VzFQWjFSWGcyeVE'
p1109
I0
sS'https://www.qu.edu/images/polling/us/us10192016_U29frgv.pdf'
p1110
I7
sS'http://heartlandmonitor.com/wp-content/uploads/2016/07/Topline_Allstate_Heartland-Monitor-Poll-XXVI_D1client_062816.pdf'
p1111
I0
sS'http://www.breitbart.com/2016-presidential-race/2016/09/11/breitbartgravis-poll-clinton-at-43-leads-trump-at-40/'
p1112
I3
sS'https://www.qu.edu/images/polling/ct/ct06072016_Cvf63kbw.pdf'
p1113
I0
sS'http://cnu.edu/cpp/pdf/april%207%202016%20report-final.pdf'
p1114
I0
sS'http://www.investors.com/wp-content/uploads/2016/06/ibdtipp-Tables_June2016_Posting-1.pdf'
p1115
I0
sS'http://media.wix.com/ugd/3bebb2_dda23cc232d44336bac0d64e85a059ff.pdf'
p1116
I2
sS'http://nmpoliticalreport.com/44100/clinton-leads-in-nm-in-three-way-race/'
p1117
I0
sS'http://www.cbsnews.com/news/cbs-news-poll-state-of-the-race-the-day-before-election-day/'
p1118
I11
sS'https://www.scribd.com/document/324094160/CBS-NYT-AM-presidential-poll-toplines-Sept-15-2016'
p1119
I0
sS'http://www.publicpolicypolling.com/main/2016/09/presidential-race-tied-cooper-up-in-nc.html'
p1120
I2
sS'http://www.upi.com/Top_News/US/2016/10/01/UPICVoter-poll-Trump-regains-lead-over-Clinton-as-September-ends/8591475344027/'
p1121
I1
sS'http://www.winthrop.edu/winthroppoll/default.aspx?id=9804'
p1122
I7
sS'http://big.assets.huffingtonpost.com/WISTATEWIDE.pdf'
p1123
I0
sS'http://www.upi.com/Top_News/US/2016/11/01/UPICVoter-poll-Clinton-Trump-nearly-tied-a-week-before-election/2981477999869/'
p1124
I0
sS'https://today.yougov.com/news/2016/10/27/yougoveconomist-poll-october-22-26-2016/'
p1125
I4
sS'https://assets.documentcloud.org/documents/3113757/2016-Muhlenberg-College-Morning-Call-late.pdf'
p1126
I5
sS'https://www.mercyhurst.edu/sites/default/files/uploads/%3Cem%3EEdit%20Simple%3C/em%3E%20MCAP%20Polls%20/mercyhurst_poll_3_spring_2016_report_edit.pdf'
p1127
I0
sS'http://monmouth.edu/MonmouthPoll_US_071816/'
p1128
I0
sS'http://big.assets.huffingtonpost.com/COSTATEWIDE.pdf'
p1129
I0
sS'http://wkussrc.blogspot.com/2016/11/trump-paul-lead-in-commonwealth-with.html'
p1130
I1
sS'http://www.prri.org/wp-content/uploads/2016/10/PRRI-2016-American-Values-Survey-Topline.pdf'
p1131
I2
sS'https://www.scribd.com/document/329381966/Tribune-Presidential-Poll'
p1132
I2
sS'http://katv.com/news/local/poll-donald-trump-extends-lead-over-hillary-clinton-in-arkansas'
p1133
I0
sS'http://www.americansunitedforchange.org/page/-/OhioResults616.pdf'
p1134
I0
sS'http://i2.cdn.turner.com/cnn/2016/images/09/14/ohiopoll.pdf'
p1135
I3
sS'http://www.foxnews.com/politics/2016/11/04/fox-news-poll-clinton-ahead-trump-by-two-points.html'
p1136
I2
sS'https://www.scribd.com/document/325392521/North-Carolina-September-24-2016-v7'
p1137
I0
sS'http://www.upi.com/Top_News/US/2016/09/01/UPICVoter-poll-Hillary-Clinton-has-28-point-lead-over-Donald-Trump/9671472735693/?spt=sec&or=tn'
p1138
I0
sS'https://www.monmouth.edu/polling-institute/reports/MonmouthPoll_PA_110216/'
p1139
I11
sS'http://wvmetronews.com/2016/09/19/gop-poll-shows-tight-gubernatorial-race-much-closer-than-metronews-west-virginia-poll/'
p1140
I0
sS'https://www.surveymonkey.com/elections/map?poll=sm-lv-cps'
p1141
I6
sS'http://i2.cdn.turner.com/cnn/2016/images/10/17/link.3..pdf'
p1142
I6
sS'http://apps.washingtonpost.com/g/page/politics/washington-post-abc-news-national-poll-july-11-14/2061/'
p1143
I0
sS'http://www.epicmra.com/press/Stwd_Survey_Jan2016_Media_Freq.pdf'
p1144
I0
sS'http://projects.fivethirtyeight.com/polls/20161007_AK_1.pdf'
p1145
I0
sS'5.74157'
p1146
I0
sS'http://luc.id/wp-content/uploads/2016/10/Florida-Battleground-Results.pdf'
p1147
I2
sS'http://www.sacbee.com/news/politics-government/capitol-alert/article88085407.html'
p1148
I0
sS'http://idahopoliticsweekly.com/politics/999-Bob%20Bernick'
p1149
I0
sS'http://www.deseretnews.com/article/865664606/Poll-Trump-falls-into-tie-with-Clinton-among-Utah-voters.html?pg=all'
p1150
I10
sS'https://cbssanfran.files.wordpress.com/2016/09/survey_usa_president_senate_092916.pdf'
p1151
I1
sS'http://media.beta.wsbtv.com/document_dev/2016/09/23/prespoll923_6148208_ver1.0.pdf'
p1152
I0
sS'http://www.rasmussenreports.com/public_content/politics/elections/election_2016/white_house_watch'
p1153
I7
sS'http://www.langerresearch.com/wp-content/uploads/1181a12016Election.pdf'
p1154
I6
sS'http://www.realclearpolitics.com/docs/2016/FOX_2_Detroit-Mitchell_Poll_of_MI_Press_Clinton_v_Trump_10-19-16_Final.pdf'
p1155
I0
sS'http://i2.cdn.turner.com/cnn/2016/images/10/03/2016.race.pdf'
p1156
I3
sS'http://www.prri.org/research/lgbt-2016-presidential-election/?test=true'
p1157
I0
sS'http://www.upi.com/Top_News/US/2016/09/10/UPICVoter-Donald-Trump-maintains-1-point-lead-over-Hillary-Clinton/2971473530599/'
p1158
I0
sS'https://poll.qu.edu/images/polling/ps/ps10272016_S397fgbw.pdf/'
p1159
I5
sS'http://www.people-press.org/files/2016/08/08-03-2016-Campaign-convos-release.pdf'
p1160
I0
sS'http://www.rasmussenreports.com/platinum/political_tracking_crosstabs/september_2016/crosstabs_election_2016_white_house_watch_september_27_29_2016'
p1161
I0
sS'http://www.realclearpolitics.com/docs/2016/FOX_2_Detroit-Mitchell_Poll_of_MI_Press_Clinton_v_Trump_10-26-16_.pdf'
p1162
I1
sS'http://www.cnn.com/2016/03/21/politics/2016-election-poll-results-toplines/index.html'
p1163
I0
sS'http://www.reuters.com/statesofthenation'
p1164
I1
sS'https://www.unf.edu/publicrelations/media_relations/press/2016/Poll_Shows_Clinton'
p1165
I0
sS'http://www.rabaresearch.com/documents/RABA-Updated-National-Survey-July-2016.pdf'
p1166
I0
sS'http://www.delawareonline.com/story/news/2016/07/27/tnj-poll-hillary-has-strong-delaware-support/87626276/'
p1167
I0
sS'https://www.scribd.com/document/318275701/CBS-NYT-POLL-Hillary-Clinton-and-Donald-Trump-tied-going-into-conventions'
p1168
I0
sS'http://www.surveyusa.com/client/PollReport.aspx?g=048dcf9b-7e4e-4ca3-8da6-f0f3b7662e73'
p1169
I0
sS'http://www.ksl.com/?sid=38970451&nid=960'
p1170
I0
sS'http://www.wsj.com/articles/polls-find-clinton-leading-in-4-key-swing-states-1468555202'
p1171
I0
sS'http://www.elon.edu/images/e-web/elonpoll/022216_ElonPoll_ExecSummary.pdf'
p1172
I0
sS'http://www.fandm.edu/uploads/files/222225192411477697-f-m-poll-release-september-2016.pdf'
p1173
I7
sS'http://www.langerresearch.com/wp-content/uploads/1184a72016ElectionTrackingNo7.pdf'
p1174
I5
sS'http://www.investors.com/politics/clinton-and-trump-are-tied-in-latest-ibdtipp-poll/'
p1175
I1
sS'http://www.politico.com/blogs/swing-states-2016-election/2016/11/poll-who-is-winning-in-north-carolina-230583'
p1176
I2
sS'http://www.upi.com/Top_News/US/2016/08/17/UPICVoter-poll-Hillary-Clinton-gains-as-Donald-Trump-slides/2121471394733/'
p1177
I1
sS'http://www.langerresearch.com/wp-content/uploads/1184a102016ElectionTrackingNo10.pdf'
p1178
I11
sS'http://media.wix.com/ugd/3bebb2_ce9f61436f9b420dbb5ef12240d1424a.pdf'
p1179
I5
sS'http://zogbyanalytics.com/news/756-clinton-and-trump-in-statistical-tie-trump-has-closed-the-gap-among-older-millennials'
p1180
I4
sS'https://drive.google.com/file/d/0B4lhKxf9pMitUTc5eVFiWERJRFE/view'
p1181
I0
sS'http://www.upi.com/Top_News/US/2016/08/23/UPICVoter-poll-Hillary-Clinton-Donald-Trump-hold-steady-in-virtual-tie/4241471961806/?spt=sec&or=tn'
p1182
I1
sS'http://www.people-press.org/2016/08/18/1-voters-general-election-preferences/'
p1183
I12
sS'http://kstp.com/politics/donald-trump-hillary-clinton-presidential-race-2016-kstp-survey-usa-poll/4273632/'
p1184
I1
sS'http://zogbyanalytics.com/news/734-zogby-analytics-news-bites-2016-general-election-head-to-head-matchups'
p1185
I0
sS'http://www.ppic.org/content/pubs/survey/S_1016MBS.pdf'
p1186
I1
sS'http://www.nbcnews.com/meet-the-press/clinton-s-lead-over-trump-shrinks-3-points-new-nbc-n577726'
p1187
I0
sS'http://www.politico.com/blogs/swing-states-2016-election/2016/07/iowa-poll-trump-clinton-running-close-225409'
p1188
I0
sS'http://www.investors.com/politics/trump-gains-ground-on-clinton-but-both-have-sky-high-negatives/'
p1189
I0
sS'http://www.nytimes.com/interactive/2016/10/30/upshot/florida-poll.html?_r=0'
p1190
I3
sS'http://www.wfaa.com/news/local/texas-news/new-poll-trump-lead-shrinks-in-texas-within-margin-of-error/335896258'
p1191
I11
sS'http://www.realclearpolitics.com/docs/2016/Remington_Research_Virginia_November.pdf'
p1192
I0
sS'http://utahpolicy.com/index.php/features/today-at-utah-policy/11183-trump-leads-mcmullin-by-one-point-among-likely-utah-voters'
p1193
I7
sS'https://assets.bwbx.io/documents/users/iqjWHBFdfxIU/rklCDpOEK78Q/v0'
p1194
I5
sS'http://www.upi.com/Top_News/US/2016/09/12/UPICVoter-poll-Donald-Trump-widens-lead-over-Hillary-Clinton-to-3-points/1571473691414/'
p1195
I0
sS'https://morningconsultintelligence.com/media/mc/160617_crosstabs_trend_v2_AP.pdf'
p1196
I0
sS'https://d25d2506sfb94s.cloudfront.net/cumulus_uploads/document/avb7831q36/ForRelease_OH_20160717.pdf'
p1197
I0
sS'https://www.uml.edu/Research/public-opinion/polls/default.aspx'
p1198
I1
sS'http://www.realclearpolitics.com/docs/2016/Landmark_Statewide_Poll_of_Georgia_10.21_.16_.pdf'
p1199
I0
sS'http://www.highpoint.edu/src/files/2016/10/48memoA.pdf'
p1200
I1
sS'http://www.publicpolicypolling.com/pdf/2015/PPP_Release_NC_102416.pdf'
p1201
I6
sS'5.713386'
p1202
I0
sS'http://big.assets.huffingtonpost.com/LRPmemo.GeorgiaDemocraticParty.F.041116.pdf'
p1203
I0
sS'http://files.constantcontact.com/9c83fb30501/486bf15f-bd24-43fa-988f-79ba63efc430.pdf'
p1204
I0
sS'https://morningconsult.com/2016/09/04/trumps-immigration-stance-isnt-hurting/'
p1205
I3
sS'http://myweb.loras.edu/Loras/PDF/LorasILSurveySept2016.pdf'
p1206
I0
sS'http://www.monmouth.edu/polling-institute/reports/MonmouthPoll_NC_082416/'
p1207
I3
sS'https://law.marquette.edu/poll/2016/07/13/new-marquette-law-school-poll-finds-clinton-feingold-leading-parties-remain-divided/'
p1208
I1
sS'http://dailycaller.com/2016/11/04/exclusive-poll-trump-clinton-tied-in-michigan/'
p1209
I6
sS'http://www.nbcnews.com/politics/first-read/polls-clinton-ahead-trump-midwest-battlegrounds-n626541'
p1210
I15
sS'http://americanresearchgroup.com/pres2016/na16-2.html'
p1211
I0
sS'https://today.yougov.com/news/2016/11/02/post-comey-poll-clinton-leads-three/'
p1212
I1
sS'http://www.wbur.org/politicker/2016/08/04/clinton-over-trump-new-hampshire-poll'
p1213
I18
sS'https://www.scribd.com/document/322491763/NBC-News-SurveyMonkey-Toplines-and-Methodology-8-22-8-28?secret_password=KVutPa2GUssfLkiGxb5s'
p1214
I0
sS'http://polling.reuters.com/'
p1215
I1
sS'https://www.qu.edu/images/polling/ps/ps05102016_Sw4b42d.pdf'
p1216
I0
sS'http://www.orion-strategies.com/documents/orion-poll-release-02252016.pdf'
p1217
I0
sS'http://graphics.latimes.com/usc-presidential-poll-dashboard/'
p1218
I98
sS'http://www.rasmussenreports.com/platinum/political_tracking_crosstabs/september_2016/toplines/toplines_election_2016_white_house_watch_september_20_21_2016'
p1219
I0
sS'http://www.rasmussenreports.com/public_content/politics/elections/election_2016/white_house_watch_oct19'
p1220
I1
sS'http://www.rasmussenreports.com/public_content/politics/elections/election_2016/white_house_watch_oct18'
p1221
I1
sS'http://nelpaction.org/wp-content/uploads/2016/08/PAResults1.pdf'
p1222
I1
sS'http://www.nbcnews.com/politics/2016-election/polls-clinton-running-table-key-battlegrounds-n629136'
p1223
I14
sS'http://www.baynews9.com/content/news/baynews9/news/article.html/content/news/articles/cfn/2016/6/29/florida_decides_polls_presidential_race.html'
p1224
I0
sS'http://projects.fivethirtyeight.com/polls/20161107_MI_1.pdf'
p1225
I0
sS'http://midnightsunak.com/2016/10/16/midnight-sun-exclusive-new-poll-shows-trump-clinton-tied-alaska/'
p1226
I3
sS'http://www.rasmussenreports.com/public_content/politics/elections/election_2016/white_house_watch_oct17'
p1227
I0
sS'http://www.rasmussenreports.com/public_content/politics/elections/election_2016/white_house_watch_oct14'
p1228
I2
sS'http://www.politico.com/f/?id=00000157-e699-dd9d-ad7f-efdf0ec20001'
p1229
I2
sS'http://www.runswitchpr.com/oct-2016-survey/'
p1230
I0
sS'http://www1.wne.edu/news/2016/10/poll-mass-presidential.cfm'
p1231
I0
sS'http://www.loras.edu/news/clinton-maintains-lead-wisconsin-feingold-johnson-tight-race-loras-college-poll-finds/'
p1232
I1
sS'https://today.yougov.com/news/2016/10/09/yougoveconomist-poll-october-7-8-2016/'
p1233
I1
sS'http://www.freep.com/story/news/politics/2016/10/27/donald-trump-narrows-hillary-clintons-lead-7-michigan/92786458/'
p1234
I6
sS'https://cbsboston.files.wordpress.com/2016/09/toplines_ma_sept.pdf'
p1235
I0
sS'http://big.assets.huffingtonpost.com/FI11825b.pdf'
p1236
I0
sS'http://endcitizensunited.org/wp-content/uploads/2016/09/ECUPA16m2-090916.pdf'
p1237
I1
sS'http://www.realclearpolitics.com/docs/2016/Remington_Research_Ohio_October_31_2016.pdf'
p1238
I1
sS'http://i2.cdn.turner.com/cnn/2016/images/06/21/rel7b.-.2016.general.pdf'
p1239
I1
sS'https://morningconsult.com/2016/05/donald-trump-hits-new-high-among-gop-voters/'
p1240
I0
sS'https://storify.com/abulsme/realtor-poll-info-from-jim-brunner'
p1241
I0
sS'https://www.monmouth.edu/polling-institute/reports/MonmouthPoll_NC_102416/'
p1242
I11
sS'http://www.realclearpolitics.com/docs/2016/2016_Reuters_Tracking_-_Core_Political_11.03_.16_.pdf'
p1243
I1
sS'https://www.scribd.com/document/330033616/Pennsylvania-November-3-2016-v2-1'
p1244
I0
sS'url'
p1245
I1
sS'http://i2.cdn.turner.com/cnn/2016/images/10/17/link.2..pdf'
p1246
I7
sS'http://www.rabaresearch.com/documents/RABA-Updated-National-Survey-July-2016-2.pdf'
p1247
I0
sS'http://media.wix.com/ugd/3bebb2_98fe8b3559f64960a573ecad7dc22ec9.pdf'
p1248
I9
sS'https://morningconsultintelligence.com/media/mc/160407_topline_trend_v5_KD.pdf'
p1249
I0
sS'http://morningconsult.com/wp-content/uploads/2015/12/151203_topline_trend_v2_TS.pdf?utm_source=hs_email&utm_medium=email&utm_content=24620275&_hsenc=p2ANqtz-9FS5yYUXPUx8AgoTanLz5Hv07FfMvEZ4CXeM39WCEXchxulffgA8QjhYV4IkgyKQzFUOTlSQ0rWe2RATcIvqg0jJ3Pg6ztvBuj'
p1250
I0
sS'http://abcnews.go.com/Politics/slight-shifts-intention-aid-trump-amid-anxiety-candidates/story?id=43080562'
p1251
I2
sS'http://www.people-press.org/2016/10/27/as-election-nears-voters-divided-over-democracy-and-respect/'
p1252
I30
sS'http://www.wral.com/wral-poll-trump-charges-ahead-in-nc/16183780/'
p1253
I11
sS'http://www.newsmax.com/Politics/donald-trump-florida-lead-dixie-strategies/2016/10/27/id/755672/'
p1254
I1
sS'https://ballotpedia.org/Ballotpedia%27s_battleground_poll'
p1255
I0
sS'http://static.bangordailynews.com/wp-content/blogs.dir/115/files/2016/03/CI-Tracking_Spring-2016.pdf?ref=inline'
p1256
I0
sS'https://www.psrai.com/pdf/psrai_pr081016.pdf'
p1257
I0
sS'http://www.langerresearch.com/wp-content/uploads/1184a82016ElectionTrackingNo8.pdf'
p1258
I10
sS'http://www.babbagecofounder.com/2016/07/11/cofounder-pulse-poll-trump-leads-clinton-kentucky/'
p1259
I0
sS'http://www.fox2detroit.com/news/local-news/214738676-story'
p1260
I2
sS'http://politics.blog.ajc.com/2016/08/05/ajc-poll-hillary-clinton-has-slim-lead-over-donald-trump-in-georgia/'
p1261
I11
sS'http://www.surveyusa.com/client/PollReport.aspx?g=088d0066-02dc-4faa-affe-a321d1390f73'
p1262
I0
sS'http://www.upi.com/Top_News/US/2016/08/08/UPICVoter-daily-poll-Clinton-maintains-7-point-lead-over-Trump/1381470658124/?spt=hs&or=tn_us'
p1263
I0
sS'http://www.coloradomesa.edu/social-research-center/cmu-rmpbs-poll-results.html'
p1264
I3
sS'https://twitter.com/ScottJenningsKY/status/761216389399007234'
p1265
I0
sS'http://www.monmouth.edu/polling-institute/reports/MonmouthPoll_MO_101216/'
p1266
I4
sS'https://gallery.mailchimp.com/5a280d25318f2afe3f311adb6/files/AZ_Statewide_LivePoll_Questionnaire_10_18.pdf'
p1267
I0
sS'http://www.realclearpolitics.com/docs/2016/Remington_OH_Oct_25th_2016.pdf'
p1268
I4
sS'https://www.scribd.com/doc/313450292/CBS-News-2016-Battleground-Tracker-Ohio-May-22'
p1269
I0
sS'http://www.hamptonu.edu/cpp/polls/201602_presidential_poll/exec_summ.cfm'
p1270
I0
sS'http://www.politico.com/story/2016/10/clinton-emails-comey-poll-politico-morning-consult-230519'
p1271
I16
sS'http://c5.nrostatic.com/sites/default/files/National%20-%20McLaughlin%20-%205-16-16%20Presentation%20-%20NEW%20SPECIAL.pdf'
p1272
I0
sS'http://psbresearch.com/wp-content/uploads/2016/08/PSB-DNC-Dial-Test-08-02-16.pdf'
p1273
I0
sS'http://assets.bwbx.io/documents/users/iqjWHBFdfxIU/rc0NltTBR0ug/v0'
p1274
I0
sS'https://www.qu.edu/images/polling/us/us06012016_Ugb28vf.pdf'
p1275
I0
sS'http://www.publicpolicypolling.com/pdf/2015/PPP_Release_PA_60816.pdf'
p1276
I2
sS'http://www.foxnews.com/politics/interactive/2016/09/21/fox-news-poll-north-carolina/'
p1277
I4
sS'http://www.nytimes.com/2016/11/08/upshot/trump-and-clinton-tied-in-final-upshot-poll-of-north-carolina.html'
p1278
I9
sS'http://ap-gfkpoll.com/main/wp-content/uploads/2016/09/September-2016-AP-GfK-Poll-Topline-Clinton1.pdf'
p1279
I1
sS'https://drive.google.com/file/d/0B4lhKxf9pMiteE9pZkcwQnZ3TVk/view'
p1280
I3
sS'http://www.quinnipiac.edu/images/polling/pa/pa04062016_Pfgr37w.pdf'
p1281
I0
sS'http://morningconsult.com/wp-content/uploads/2015/12/151201_topline_trend_v3.pdf'
p1282
I0
sS'http://i2.cdn.turner.com/cnn/2016/images/11/02/relaz2.pdf'
p1283
I8
sS'http://www.realclearpolitics.com/docs/2016/Remington_Research_Nevada_October_31_2016.pdf'
p1284
I3
sS'http://www.monmouth.edu/assets/0/32212254770/32212254991/32212254992/32212254994/32212254995/30064771087/71c06fa8-e277-4d82-9ac1-38fa679864c8.pdf'
p1285
I0
sS'https://www.scribd.com/document/330170543/9amET-NBCWSJ-release'
p1286
I3
sS'https://s3.amazonaws.com/redoakstrategic-gcs/RedOakStrategic_NationalGCSSurvey_Nov12016.pdf'
p1287
I2
sS'http://bloximages.chicago2.vip.townnews.com/hutchnews.com/content/tncms/assets/v3/editorial/1/92/1926b6ac-a5f6-5a77-85b5-3231499f83d7/5794264c5bf4c.pdf.pdf'
p1288
I0
sS'http://angusreid.org/wp-content/uploads/2016/11/2016.11.04-US-Horserace.pdf'
p1289
I0
sS'http://www.suffolk.edu/documents/SUPRC/2_17_2016_marginals.pdf'
p1290
I0
sS'http://ksn.com/2016/09/13/ksn-news-poll-shows-donald-trump-leading-hillary-clinton-in-kansas/'
p1291
I2
sS'http://zogbyanalytics.com/news/729-clinton-leads-trump-and-cruz-but-trails-kasich-in-zogby-poll'
p1292
I0
sS'http://i2.cdn.turner.com/cnn/2015/images/12/23/cnnpoll2.pdf'
p1293
I0
sS'http://www.democracycorps.com/attachments/article/1044/Democracy%20Corps%20Battleground%20091916%20FQ.pdf'
p1294
I0
sS'http://www.cnn.com/2016/09/26/politics/donald-trump-hillary-clinton-colorado-pennsylvania-polls/index.html'
p1295
I9
sS'http://www.ksla.com/story/33437911/exclusive-poll-trump-holds-strong-lead-over-clinton-in-louisiana'
p1296
I1
sS'http://www.uh.edu/class/hobby/texas2016/'
p1297
I12
sS'http://www.wthr.com/article/exclusive-wthrhpi-poll-trump-has-solid-lead-on-clinton'
p1298
I2
sS'http://www.publicpolicypolling.com/pdf/2015/PPP_Release_NC_120815.pdf'
p1299
I0
sS'https://d25d2506sfb94s.cloudfront.net/cumulus_uploads/document/l37rosbwjp/econTabReport_lv.pdf'
p1300
I3
sS'http://kcts9.org/programs/vote-2016/new-poll-finds-washington-state-often-divided-region-and-political-parties-many'
p1301
I1
sS'http://wvmetronews.com/2016/09/01/metronews-west-virginia-poll-trump-still-the-choice-of-mountain-state-voters/'
p1302
I1
sS'http://m.rasmussenreports.com/public_content/politics/elections/election_2016/white_house_watch'
p1303
I1
sS'http://www.realclearpolitics.com/docs/2016/Landmark_RosettaStone_Georgia_November.pdf'
p1304
I0
sS'http://wishtv.com/2016/10/20/hoosier-survey-trump-leads-in-indiana-pence-helps/'
p1305
I2
sS'http://media.wix.com/ugd/3bebb2_6e2658e719304bde8f4e78f4559ecfa9.pdf'
p1306
I1
sS'https://morningconsult.com/2016/06/07/poll-ryan-endorsement-doesnt-help-trump-independents/'
p1307
I0
sS'http://projects.fivethirtyeight.com/polls/20161005_National_1.pdf'
p1308
I0
sS'http://projects.fivethirtyeight.com/polls/20160920_MD_2.pdf'
p1309
I0
sS'http://big.assets.huffingtonpost.com/July2016IllinoisPresidential.pdf'
p1310
I0
sS'http://www.opb.org/news/series/election-2016/hillary-clinton-kate-brown-lead-in-new-opb-poll/'
p1311
I3
sS'http://www.realclearpolitics.com/docs/2016/Economist_YouGov_General_Election_June_18_20.pdf'
p1312
I0
sS'http://www.jsonline.com/story/news/politics/elections/2016/10/24/johnson-campaign-upbeat-final-push/92660192/'
p1313
I0
sS'http://www.highpoint.edu/src/files/2016/09/47memoA.pdf'
p1314
I1
sS'http://big.assets.huffingtonpost.com/NationalJune.pdf'
p1315
I0
sS'https://www.scribd.com/document/327758568/CBS-News-Battleground-Tracker-Nevada-Oct-1'
p1316
I0
sS'https://www.qu.edu/images/polling/nj/nj05192016_Nwh73tr.pdf'
p1317
I0
sS'https://www.monmouth.edu/polling-institute/reports/MonmouthPoll_AZ_102516/'
p1318
I6
sS'https://www.qu.edu/images/polling/ps/ps06212016_Sfw34kbm.pdf'
p1319
I2
sS'https://www.scribd.com/doc/306974607/NBC-News-SurveyMonkey-Weekly-Toplines-and-Methodology-3-28-4-3?secret_password=Osw6wZNsOphJxihwYPNZ'
p1320
I0
sS'http://www.insightswest.com/news/trump-leads-in-arizona-and-nevada-clinton-in-california-and-washington/'
p1321
I0
sS'http://harperpolling.com/polls/pennsylvania-statewide-poll--11-2-3'
p1322
I0
sS'https://www.documentcloud.org/documents/3003395-UPI-CVoter-Release-2016-August-2FINAL.html'
p1323
I0
sS'http://www.hoover.org/sites/default/files/golden_state_poll_may_2016_results_tables_final.pdf'
p1324
I0
sS'http://research.uvu.edu/DeSart/SurveyReport9-14-16.pdf'
p1325
I0
sS'http://www.desmoinesregister.com/story/news/politics/iowa-poll/2016/11/05/iowa-poll-trump-opens-7-point-lead-over-clinton/93347134/?hootPostID=244ad51ae6af519614281eb8c6904b90'
p1326
I9
sS'https://morningconsultintelligence.com/media/mc/160408_topline_trend_v3_AP.pdf'
p1327
I0
sS'http://projects.fivethirtyeight.com/polls/20161017_NM.pdf'
p1328
I0
sS'https://cola.unh.edu/sites/cola.unh.edu/files/research_publications/gsp2016_fall_preselec101916.pdf'
p1329
I2
sS'http://www.oann.com/pollohio/'
p1330
I0
sS'http://www.upi.com/Top_News/US/2016/11/04/UPICVoter-poll-Clinton-Trump-remain-locked-in-dead-heat/6171478273495/'
p1331
I0
sS'https://drive.google.com/file/d/0BzYWYWbqPbrFYmpfbExFNm1wYjQ/view?pref=2&pli=1'
p1332
I0
sS'https://morningconsultintelligence.com/media/mc/160510_crosstabs_STACKED_TREND_v1_AP.pdf'
p1333
I0
sS'http://www.huffingtonpost.com/david-ormsby/poll-clinton-thumping-tru_b_12579014.html?test'
p1334
I0
sS'https://gallery.mailchimp.com/5a280d25318f2afe3f311adb6/files/AZ_Statewide__LivePoll__Toplines_10_30.pdf'
p1335
I0
sS'https://d25d2506sfb94s.cloudfront.net/cumulus_uploads/document/zcgy71ddez/econToplines.pdf'
p1336
I0
sS'http://reuters.com/statesofthenation/'
p1337
I0
sS'http://www.monmouth.edu/polling-institute/reports/MonmouthPoll_GA_091916/'
p1338
I3
sS'https://mediarelations.gwu.edu/new-gw-battleground-poll-clinton-begins-pull-away-trump-and-voters-think-she%E2%80%99ll-win'
p1339
I0
sS'https://www.suffolk.edu/documents/SUPRC/10_26_2016_marginals.pdf'
p1340
I1
sS'http://www.bostonglobe.com/metro/2016/10/13/new-poll-clinton-leads-trump-points/fobYE8hDXzrosyLIqRyJOM/story.html?event=event25'
p1341
I1
sS'http://www.rasmussenreports.com/public_content/politics/elections/election_2016/white_house_watch_oct03'
p1342
I0
sS'http://www.rasmussenreports.com/public_content/politics/elections/election_2016/white_house_watch_oct04'
p1343
I0
sS'http://www.rasmussenreports.com/public_content/politics/elections/election_2016/white_house_watch_oct05'
p1344
I0
sS'http://www.rasmussenreports.com/public_content/politics/elections/election_2016/white_house_watch_oct06'
p1345
I1
sS'http://www.rasmussenreports.com/public_content/politics/elections/election_2016/white_house_watch_oct07'
p1346
I0
sS'http://www.monmouth.edu/polling-institute/reports/MonmouthPoll_US_082916/'
p1347
I2
sS'http://americanresearchgroup.com/pres2016/na16-6.html'
p1348
I3
sS'http://opinionsavvy.com/2016/09/30/poll-clinton-leads-by-1-in-fl/'
p1349
I4
sS'http://www.wthr.com/article/exclusive-wthrhpi-poll-young-pulls-ahead-of-bayh-in-senate-race'
p1350
I4
sS'http://www.slideshare.net/AbdulHakimShabazz/brooks-v-gregg'
p1351
I0
sS'http://media.wix.com/ugd/3bebb2_4c95f9bb0b874960a67b0cb7c019efd8.pdf'
p1352
I5
sS'http://www.realclearpolitics.com/docs/2016/Gravis_Nevada_November_2016.pdf'
p1353
I0
sS'http://res.cloudinary.com/bdy4ger4/image/upload/v1475532480/HOFFMAN_0916_SURVEY_REPORT_mdltu9.pdf'
p1354
I2
sS'http://i2.cdn.turner.com/cnn/2016/images/11/02/relpa2.pdf'
p1355
I8
sS'http://abcnews.go.com/Politics/clinton-trump-race-narrows-doorstep-debates-poll/story?id=42313593'
p1356
I4
sS'http://www.upi.com/Top_News/US/2016/11/07/UPICVoter-poll-Hillary-Clinton-holds-slim-lead-over-Donald-Trump-on-eve-of-election/5881478528364/'
p1357
I0
sS'https://twitter.com/MULawPoll'
p1358
I1
sS'http://i2.cdn.turner.com/cnn/2016/images/07/07/07-07-16.voter.attitudes.release.embargoed.pdf'
p1359
I0
sS'https://www.uml.edu/docs/2-6%20TOPLINE%20-%20UMassLowell-7NEWS%20NH%20PRIMARY_tcm18-230852.pdf'
p1360
I0
sS'https://d25d2506sfb94s.cloudfront.net/cumulus_uploads/document/m5q5q60ku5/econTabReport.pdf'
p1361
I0
sS'https://www.scribd.com/document/330023731/UTAH-Final'
p1362
I0
sS'http://www.postandcourier.com/20160929/160929356/donald-trump-holds-small-lead-against-hillary-clinton-in-new-state-poll'
p1363
I0
sS'https://www.georgiapol.com/wp-content/uploads/2016/10/Landmark-Poll-Georgia-Statewide-Oct-11-12-2016.pdf'
p1364
I0
sS'http://big.assets.huffingtonpost.com/DIPApoll310.pdf.pdf'
p1365
I1
sS'http://www.realclearpolitics.com/docs/2016/Trafalgar_Florida_November_2nd_2016.pdf'
p1366
I0
sS'http://heatst.com/world/exclusive-evan-mcmullin-utah-poll-independent-conservative-ties-trump/'
p1367
I7
sS'http://www.rasmussenreports.com/public_content/politics/elections/election_2016/clinton_edges_ahead_of_trump_in_presidential_matchup'
p1368
I0
sS'https://today.yougov.com/news/2016/10/23/battlegrounds-presidential-race-tight-florida-and-/'
p1369
I2
sS'http://www.publicpolicypolling.com/pdf/2015/PPP_Release_IA_11216.pdf'
p1370
I0
sS'http://www.lasvegasnow.com/news/nvelection-8-news-now-poll-finds-clinton-trump-races-tied'
p1371
I1
sS'http://www.realclearpolitics.com/docs/2016/FOX_2_Detroit-Mitchell_Poll_of_MI_Press_Clinton_v_Trump_10-24-16.pdf'
p1372
I1
sS'https://www.scribd.com/doc/316277544/NBC-News-SurveyMonkey-Toplines-and-Methodology-6-13-6-19'
p1373
I0
sS'http://www.nbcnews.com/politics/first-read/poll-clinton-ahead-north-carolina-virtual-tie-ohio-n665981'
p1374
I13
sS'https://morningconsult.com/2016/09/25/trump-edges-clinton-ahead-first-debate/'
p1375
I8
sS'http://www.sacbee.com/news/politics-government/capitol-alert/article112168782.html'
p1376
I2
sS'http://themissouritimes.com/35134/blunt-opens-lead-kander-new-poll/'
p1377
I0
sS'http://www.suffolk.edu/documents/SUPRC/7_28_2016_tables.pdf'
p1378
I0
sS'http://www.wsj.com/articles/hillary-clinton-leads-by-4-points-in-north-carolina-donald-trump-has-1-point-gain-in-ohio-poll-finds-1476388816?tesla=y'
p1379
I0
sS'https://www.documentcloud.org/documents/3004468-UPI-CVoter-Release-2016-August-3FINAL.html'
p1380
I0
sS'https://www.washingtonpost.com/news/the-fix/wp/2016/11/04/clinton-up-47-44-in-post-abc-tracking-poll-despite-trumps-9-point-edge-on-dealing-with-corruption/'
p1381
I5
sS'http://www.freep.com/story/news/politics/2016/09/15/donald-trump-hillary-clinton-michigan-poll/90381296/'
p1382
I7
sS'http://www.cbsnews.com/news/cbsnyt-national-poll-hillary-clintons-lead-over-donald-trump-narrows/'
p1383
I0
sS'http://www.surveyusa.com/client/PollReport.aspx?g=47c9cb86-78f1-4886-a8b3-df6ef090b5b8'
p1384
I0
sS'http://www.babbagecofounder.com/2016/11/01/paul-trump-lead-final-cofounder-pulse-poll/'
p1385
I0
sS'http://www.publicpolicypolling.com/pdf/2015/PPP_Release_Missouri_71516.pdf'
p1386
I2
sS'http://www.gravispolls.com/2016/11/multi-state-polls.html?m=1'
p1387
I1
sS'http://projects.fivethirtyeight.com/polls/20161030_ME_1.pdf'
p1388
I0
sS'https://www.scribd.com/document/330123601/U-S-November-3-2016-v1-'
p1389
I0
sS'http://www.surveyusa.com/client/PollReport.aspx?g=befe5f60-092c-48e8-b36f-b5ae8e28048e'
p1390
I2
sS'http://www.bloomberg.com/politics/articles/2016-10-13/pennsylvania-poll'
p1391
I8
sS'http://www.ocregister.com/articles/percent-732384-poll-california.html'
p1392
I2
sS'http://www.realclearpolitics.com/docs/2016/FOX_2_Detroit-Mitchell_Poll_of_MI_Press_Clinton_v_Trump_10-12-16_B.pdf'
p1393
I1
sS'https://www.abqjournal.com/883092/clinton-still-ahead-in-new-mexico.html'
p1394
I4
sS'http://opinionsavvy.com/wp-content/uploads/2016/11/OS-FL-General-11.7.16.pdf'
p1395
I0
sS'http://www.breitbart.com/big-government/2016/10/28/exclusive-breitbartgravis-nevada-poll-tied-donald-trump-hillary-clinton-46-percent/'
p1396
I2
sS'https://luc.id/wp-content/uploads/2016/11/New-Mexico-Battleground-Results.pdf'
p1397
I0
sS'http://utahpolicy.com/index.php/features/today-at-utah-policy/10413-'
p1398
I1
sS'https://www.surveymonkey.com/elections/map?poll=sm-lv-cpsplus'
p1399
I3
sS'https://gqrr.app.box.com/s/e43t1oo48vr9kfrz5t1fhl3qbfsoz39v'
p1400
I0
sS'http://big.assets.huffingtonpost.com/FHSUPreprimaryPoll.pdf'
p1401
I0
sS'http://www.reviewjournal.com/politics/election-2016/rj-s-nevada-poll-shows-clinton-and-trump-are-statistical-tie'
p1402
I10
sS'https://www.nccivitas.org/wp-content/uploads/2016/10/CivitasOctoberPoll_release.pdf'
p1403
I3
sS'https://www.scribd.com/document/322977191/CBS-News-Battleground-Tracker-Pennsylvania-September-4'
p1404
I0
sS'http://www.bw.edu/Assets/stories/2016/ToplineReport_Ohio%20Election%20Poll_Feb24-FINALx.pdf'
p1405
I0
sS'http://winwithjmc.com/wp-content/uploads/2016/05/LA-Presidential-Executive-Summary.pdf'
p1406
I0
sS'https://www.scribd.com/document/323578643/NBC-News-WSJ-Marist-Poll-Georgia-Annotated-Questionnaire-September-2016'
p1407
I2
sS'http://www.13newsnow.com/news/politics/elections/tracking-poll-shows-clintons-lead-edge-up-after-debate/328537372'
p1408
I0
sS'http://projects.fivethirtyeight.com/polls/20161101_Swing_1.pdf'
p1409
I0
sS'http://weneednine.org/wp-content/uploads/2016/07/IAToplines1.pdf'
p1410
I0
sS'https://morningconsult.com/2016/08/28/trump-gains-ground-clinton-black-voters-still-wary/'
p1411
I5
sS'https://www.scribd.com/document/325392444/PA-Sept-25-v2'
p1412
I0
sS'http://www.nbcnews.com/politics/2016-election/donald-trump-hillary-clinton-hold-big-leads-michigan-poll-n532576'
p1413
I0
sS'https://www.washingtonpost.com/news/the-fix/wp/2016/11/07/post-abc-tracking-poll-clinton-47-trump-43-on-election-eve/'
p1414
I2
sS'https://mgtvwhtm.files.wordpress.com/2016/11/toplines-statewideabc272-oct16.pdf'
p1415
I1
sS'http://www1.wne.edu/assets/112/PresidentialPressRelease_FINAL_04_12_16.pdf'
p1416
I0
sS'https://morningconsultintelligence.com/media/mc/160802_topline_trend_v2_AP.pdf'
p1417
I0
sS'http://www.realclearpolitics.com/docs/2016/Zia_Poll_October_27th_2016.pdf'
p1418
I1
s.